   1              		.syntax unified
   2              		.cpu cortex-m3
   3              		.fpu softvfp
   4              		.eabi_attribute 20, 1
   5              		.eabi_attribute 21, 1
   6              		.eabi_attribute 23, 3
   7              		.eabi_attribute 24, 1
   8              		.eabi_attribute 25, 1
   9              		.eabi_attribute 26, 1
  10              		.eabi_attribute 30, 6
  11              		.eabi_attribute 34, 1
  12              		.eabi_attribute 18, 4
  13              		.thumb
  14              		.file	"tasks.c"
  15              		.text
  16              	.Ltext0:
  17              		.cfi_sections	.debug_frame
  18              		.global	pxCurrentTCB
  19              		.section	.bss.pxCurrentTCB,"aw",%nobits
  20              		.align	2
  23              	pxCurrentTCB:
  24 0000 00000000 		.space	4
  25              		.section	.bss.pxReadyTasksLists,"aw",%nobits
  26              		.align	2
  29              	pxReadyTasksLists:
  30 0000 00000000 		.space	200
  30      00000000 
  30      00000000 
  30      00000000 
  30      00000000 
  31              		.section	.bss.xDelayedTaskList1,"aw",%nobits
  32              		.align	2
  35              	xDelayedTaskList1:
  36 0000 00000000 		.space	20
  36      00000000 
  36      00000000 
  36      00000000 
  36      00000000 
  37              		.section	.bss.xDelayedTaskList2,"aw",%nobits
  38              		.align	2
  41              	xDelayedTaskList2:
  42 0000 00000000 		.space	20
  42      00000000 
  42      00000000 
  42      00000000 
  42      00000000 
  43              		.section	.bss.pxDelayedTaskList,"aw",%nobits
  44              		.align	2
  47              	pxDelayedTaskList:
  48 0000 00000000 		.space	4
  49              		.section	.bss.pxOverflowDelayedTaskList,"aw",%nobits
  50              		.align	2
  53              	pxOverflowDelayedTaskList:
  54 0000 00000000 		.space	4
  55              		.section	.bss.xPendingReadyList,"aw",%nobits
  56              		.align	2
  59              	xPendingReadyList:
  60 0000 00000000 		.space	20
  60      00000000 
  60      00000000 
  60      00000000 
  60      00000000 
  61              		.section	.bss.xSuspendedTaskList,"aw",%nobits
  62              		.align	2
  65              	xSuspendedTaskList:
  66 0000 00000000 		.space	20
  66      00000000 
  66      00000000 
  66      00000000 
  66      00000000 
  67              		.section	.bss.uxCurrentNumberOfTasks,"aw",%nobits
  68              		.align	2
  71              	uxCurrentNumberOfTasks:
  72 0000 00000000 		.space	4
  73              		.section	.bss.xTickCount,"aw",%nobits
  74              		.align	2
  77              	xTickCount:
  78 0000 00000000 		.space	4
  79              		.section	.bss.uxTopReadyPriority,"aw",%nobits
  80              		.align	2
  83              	uxTopReadyPriority:
  84 0000 00000000 		.space	4
  85              		.section	.bss.xSchedulerRunning,"aw",%nobits
  86              		.align	2
  89              	xSchedulerRunning:
  90 0000 00000000 		.space	4
  91              		.section	.bss.uxPendedTicks,"aw",%nobits
  92              		.align	2
  95              	uxPendedTicks:
  96 0000 00000000 		.space	4
  97              		.section	.bss.xYieldPending,"aw",%nobits
  98              		.align	2
 101              	xYieldPending:
 102 0000 00000000 		.space	4
 103              		.section	.bss.xNumOfOverflows,"aw",%nobits
 104              		.align	2
 107              	xNumOfOverflows:
 108 0000 00000000 		.space	4
 109              		.section	.bss.uxTaskNumber,"aw",%nobits
 110              		.align	2
 113              	uxTaskNumber:
 114 0000 00000000 		.space	4
 115              		.section	.bss.xNextTaskUnblockTime,"aw",%nobits
 116              		.align	2
 119              	xNextTaskUnblockTime:
 120 0000 00000000 		.space	4
 121              		.section	.bss.xIdleTaskHandle,"aw",%nobits
 122              		.align	2
 125              	xIdleTaskHandle:
 126 0000 00000000 		.space	4
 127              		.section	.bss.uxSchedulerSuspended,"aw",%nobits
 128              		.align	2
 131              	uxSchedulerSuspended:
 132 0000 00000000 		.space	4
 133              		.section	.text.xTaskCreate,"ax",%progbits
 134              		.align	2
 135              		.global	xTaskCreate
 136              		.thumb
 137              		.thumb_func
 139              	xTaskCreate:
 140              	.LFB4:
 141              		.file 1 "../src/RTOS/tasks.c"
   1:../src/RTOS/tasks.c **** /*
   2:../src/RTOS/tasks.c ****     FreeRTOS V9.0.0rc2 - Copyright (C) 2016 Real Time Engineers Ltd.
   3:../src/RTOS/tasks.c ****     All rights reserved
   4:../src/RTOS/tasks.c **** 
   5:../src/RTOS/tasks.c ****     VISIT http://www.FreeRTOS.org TO ENSURE YOU ARE USING THE LATEST VERSION.
   6:../src/RTOS/tasks.c **** 
   7:../src/RTOS/tasks.c ****     This file is part of the FreeRTOS distribution.
   8:../src/RTOS/tasks.c **** 
   9:../src/RTOS/tasks.c ****     FreeRTOS is free software; you can redistribute it and/or modify it under
  10:../src/RTOS/tasks.c ****     the terms of the GNU General Public License (version 2) as published by the
  11:../src/RTOS/tasks.c ****     Free Software Foundation >>>> AND MODIFIED BY <<<< the FreeRTOS exception.
  12:../src/RTOS/tasks.c **** 
  13:../src/RTOS/tasks.c ****     ***************************************************************************
  14:../src/RTOS/tasks.c ****     >>!   NOTE: The modification to the GPL is included to allow you to     !<<
  15:../src/RTOS/tasks.c ****     >>!   distribute a combined work that includes FreeRTOS without being   !<<
  16:../src/RTOS/tasks.c ****     >>!   obliged to provide the source code for proprietary components     !<<
  17:../src/RTOS/tasks.c ****     >>!   outside of the FreeRTOS kernel.                                   !<<
  18:../src/RTOS/tasks.c ****     ***************************************************************************
  19:../src/RTOS/tasks.c **** 
  20:../src/RTOS/tasks.c ****     FreeRTOS is distributed in the hope that it will be useful, but WITHOUT ANY
  21:../src/RTOS/tasks.c ****     WARRANTY; without even the implied warranty of MERCHANTABILITY or FITNESS
  22:../src/RTOS/tasks.c ****     FOR A PARTICULAR PURPOSE.  Full license text is available on the following
  23:../src/RTOS/tasks.c ****     link: http://www.freertos.org/a00114.html
  24:../src/RTOS/tasks.c **** 
  25:../src/RTOS/tasks.c ****     ***************************************************************************
  26:../src/RTOS/tasks.c ****      *                                                                       *
  27:../src/RTOS/tasks.c ****      *    FreeRTOS provides completely free yet professionally developed,    *
  28:../src/RTOS/tasks.c ****      *    robust, strictly quality controlled, supported, and cross          *
  29:../src/RTOS/tasks.c ****      *    platform software that is more than just the market leader, it     *
  30:../src/RTOS/tasks.c ****      *    is the industry's de facto standard.                               *
  31:../src/RTOS/tasks.c ****      *                                                                       *
  32:../src/RTOS/tasks.c ****      *    Help yourself get started quickly while simultaneously helping     *
  33:../src/RTOS/tasks.c ****      *    to support the FreeRTOS project by purchasing a FreeRTOS           *
  34:../src/RTOS/tasks.c ****      *    tutorial book, reference manual, or both:                          *
  35:../src/RTOS/tasks.c ****      *    http://www.FreeRTOS.org/Documentation                              *
  36:../src/RTOS/tasks.c ****      *                                                                       *
  37:../src/RTOS/tasks.c ****     ***************************************************************************
  38:../src/RTOS/tasks.c **** 
  39:../src/RTOS/tasks.c ****     http://www.FreeRTOS.org/FAQHelp.html - Having a problem?  Start by reading
  40:../src/RTOS/tasks.c ****     the FAQ page "My application does not run, what could be wrong?".  Have you
  41:../src/RTOS/tasks.c ****     defined configASSERT()?
  42:../src/RTOS/tasks.c **** 
  43:../src/RTOS/tasks.c ****     http://www.FreeRTOS.org/support - In return for receiving this top quality
  44:../src/RTOS/tasks.c ****     embedded software for free we request you assist our global community by
  45:../src/RTOS/tasks.c ****     participating in the support forum.
  46:../src/RTOS/tasks.c **** 
  47:../src/RTOS/tasks.c ****     http://www.FreeRTOS.org/training - Investing in training allows your team to
  48:../src/RTOS/tasks.c ****     be as productive as possible as early as possible.  Now you can receive
  49:../src/RTOS/tasks.c ****     FreeRTOS training directly from Richard Barry, CEO of Real Time Engineers
  50:../src/RTOS/tasks.c ****     Ltd, and the world's leading authority on the world's leading RTOS.
  51:../src/RTOS/tasks.c **** 
  52:../src/RTOS/tasks.c ****     http://www.FreeRTOS.org/plus - A selection of FreeRTOS ecosystem products,
  53:../src/RTOS/tasks.c ****     including FreeRTOS+Trace - an indispensable productivity tool, a DOS
  54:../src/RTOS/tasks.c ****     compatible FAT file system, and our tiny thread aware UDP/IP stack.
  55:../src/RTOS/tasks.c **** 
  56:../src/RTOS/tasks.c ****     http://www.FreeRTOS.org/labs - Where new FreeRTOS products go to incubate.
  57:../src/RTOS/tasks.c ****     Come and try FreeRTOS+TCP, our new open source TCP/IP stack for FreeRTOS.
  58:../src/RTOS/tasks.c **** 
  59:../src/RTOS/tasks.c ****     http://www.OpenRTOS.com - Real Time Engineers ltd. license FreeRTOS to High
  60:../src/RTOS/tasks.c ****     Integrity Systems ltd. to sell under the OpenRTOS brand.  Low cost OpenRTOS
  61:../src/RTOS/tasks.c ****     licenses offer ticketed support, indemnification and commercial middleware.
  62:../src/RTOS/tasks.c **** 
  63:../src/RTOS/tasks.c ****     http://www.SafeRTOS.com - High Integrity Systems also provide a safety
  64:../src/RTOS/tasks.c ****     engineered and independently SIL3 certified version for use in safety and
  65:../src/RTOS/tasks.c ****     mission critical applications that require provable dependability.
  66:../src/RTOS/tasks.c **** 
  67:../src/RTOS/tasks.c ****     1 tab == 4 spaces!
  68:../src/RTOS/tasks.c **** */
  69:../src/RTOS/tasks.c **** 
  70:../src/RTOS/tasks.c **** /* Standard includes. */
  71:../src/RTOS/tasks.c **** #include <stdlib.h>
  72:../src/RTOS/tasks.c **** #include <string.h>
  73:../src/RTOS/tasks.c **** 
  74:../src/RTOS/tasks.c **** /* Defining MPU_WRAPPERS_INCLUDED_FROM_API_FILE prevents task.h from redefining
  75:../src/RTOS/tasks.c **** all the API functions to use the MPU wrappers.  That should only be done when
  76:../src/RTOS/tasks.c **** task.h is included from an application file. */
  77:../src/RTOS/tasks.c **** #define MPU_WRAPPERS_INCLUDED_FROM_API_FILE
  78:../src/RTOS/tasks.c **** 
  79:../src/RTOS/tasks.c **** /* FreeRTOS includes. */
  80:../src/RTOS/tasks.c **** #include "FreeRTOS.h"
  81:../src/RTOS/tasks.c **** #include "task.h"
  82:../src/RTOS/tasks.c **** #include "timers.h"
  83:../src/RTOS/tasks.c **** #include "StackMacros.h"
  84:../src/RTOS/tasks.c **** 
  85:../src/RTOS/tasks.c **** /* Lint e961 and e750 are suppressed as a MISRA exception justified because the
  86:../src/RTOS/tasks.c **** MPU ports require MPU_WRAPPERS_INCLUDED_FROM_API_FILE to be defined for the
  87:../src/RTOS/tasks.c **** header files above, but not in this file, in order to generate the correct
  88:../src/RTOS/tasks.c **** privileged Vs unprivileged linkage and placement. */
  89:../src/RTOS/tasks.c **** #undef MPU_WRAPPERS_INCLUDED_FROM_API_FILE /*lint !e961 !e750. */
  90:../src/RTOS/tasks.c **** 
  91:../src/RTOS/tasks.c **** /* Set configUSE_STATS_FORMATTING_FUNCTIONS to 2 to include the stats formatting
  92:../src/RTOS/tasks.c **** functions but without including stdio.h here. */
  93:../src/RTOS/tasks.c **** #if ( configUSE_STATS_FORMATTING_FUNCTIONS == 1 )
  94:../src/RTOS/tasks.c **** 	/* At the bottom of this file are two optional functions that can be used
  95:../src/RTOS/tasks.c **** 	to generate human readable text from the raw data generated by the
  96:../src/RTOS/tasks.c **** 	uxTaskGetSystemState() function.  Note the formatting functions are provided
  97:../src/RTOS/tasks.c **** 	for convenience only, and are NOT considered part of the kernel. */
  98:../src/RTOS/tasks.c **** 	#include <stdio.h>
  99:../src/RTOS/tasks.c **** #endif /* configUSE_STATS_FORMATTING_FUNCTIONS == 1 ) */
 100:../src/RTOS/tasks.c **** 
 101:../src/RTOS/tasks.c **** #if( configUSE_PREEMPTION == 0 )
 102:../src/RTOS/tasks.c **** 	/* If the cooperative scheduler is being used then a yield should not be
 103:../src/RTOS/tasks.c **** 	performed just because a higher priority task has been woken. */
 104:../src/RTOS/tasks.c **** 	#define taskYIELD_IF_USING_PREEMPTION()
 105:../src/RTOS/tasks.c **** #else
 106:../src/RTOS/tasks.c **** 	#define taskYIELD_IF_USING_PREEMPTION() portYIELD_WITHIN_API()
 107:../src/RTOS/tasks.c **** #endif
 108:../src/RTOS/tasks.c **** 
 109:../src/RTOS/tasks.c **** /* Values that can be assigned to the ucNotifyState member of the TCB. */
 110:../src/RTOS/tasks.c **** #define taskNOT_WAITING_NOTIFICATION	( ( uint8_t ) 0 )
 111:../src/RTOS/tasks.c **** #define taskWAITING_NOTIFICATION		( ( uint8_t ) 1 )
 112:../src/RTOS/tasks.c **** #define taskNOTIFICATION_RECEIVED		( ( uint8_t ) 2 )
 113:../src/RTOS/tasks.c **** 
 114:../src/RTOS/tasks.c **** /*
 115:../src/RTOS/tasks.c ****  * The value used to fill the stack of a task when the task is created.  This
 116:../src/RTOS/tasks.c ****  * is used purely for checking the high water mark for tasks.
 117:../src/RTOS/tasks.c ****  */
 118:../src/RTOS/tasks.c **** #define tskSTACK_FILL_BYTE	( 0xa5U )
 119:../src/RTOS/tasks.c **** 
 120:../src/RTOS/tasks.c **** /*
 121:../src/RTOS/tasks.c ****  * Macros used by vListTask to indicate which state a task is in.
 122:../src/RTOS/tasks.c ****  */
 123:../src/RTOS/tasks.c **** #define tskBLOCKED_CHAR		( 'B' )
 124:../src/RTOS/tasks.c **** #define tskREADY_CHAR		( 'R' )
 125:../src/RTOS/tasks.c **** #define tskDELETED_CHAR		( 'D' )
 126:../src/RTOS/tasks.c **** #define tskSUSPENDED_CHAR	( 'S' )
 127:../src/RTOS/tasks.c **** 
 128:../src/RTOS/tasks.c **** /*
 129:../src/RTOS/tasks.c ****  * Some kernel aware debuggers require the data the debugger needs access to be
 130:../src/RTOS/tasks.c ****  * global, rather than file scope.
 131:../src/RTOS/tasks.c ****  */
 132:../src/RTOS/tasks.c **** #ifdef portREMOVE_STATIC_QUALIFIER
 133:../src/RTOS/tasks.c **** 	#define static
 134:../src/RTOS/tasks.c **** #endif
 135:../src/RTOS/tasks.c **** 
 136:../src/RTOS/tasks.c **** #if ( configUSE_PORT_OPTIMISED_TASK_SELECTION == 0 )
 137:../src/RTOS/tasks.c **** 
 138:../src/RTOS/tasks.c **** 	/* If configUSE_PORT_OPTIMISED_TASK_SELECTION is 0 then task selection is
 139:../src/RTOS/tasks.c **** 	performed in a generic way that is not optimised to any particular
 140:../src/RTOS/tasks.c **** 	microcontroller architecture. */
 141:../src/RTOS/tasks.c **** 
 142:../src/RTOS/tasks.c **** 	/* uxTopReadyPriority holds the priority of the highest priority ready
 143:../src/RTOS/tasks.c **** 	state task. */
 144:../src/RTOS/tasks.c **** 	#define taskRECORD_READY_PRIORITY( uxPriority )														\
 145:../src/RTOS/tasks.c **** 	{																									\
 146:../src/RTOS/tasks.c **** 		if( ( uxPriority ) > uxTopReadyPriority )														\
 147:../src/RTOS/tasks.c **** 		{																								\
 148:../src/RTOS/tasks.c **** 			uxTopReadyPriority = ( uxPriority );														\
 149:../src/RTOS/tasks.c **** 		}																								\
 150:../src/RTOS/tasks.c **** 	} /* taskRECORD_READY_PRIORITY */
 151:../src/RTOS/tasks.c **** 
 152:../src/RTOS/tasks.c **** 	/*-----------------------------------------------------------*/
 153:../src/RTOS/tasks.c **** 
 154:../src/RTOS/tasks.c **** 	#define taskSELECT_HIGHEST_PRIORITY_TASK()															\
 155:../src/RTOS/tasks.c **** 	{																									\
 156:../src/RTOS/tasks.c **** 	UBaseType_t uxTopPriority = uxTopReadyPriority;														\
 157:../src/RTOS/tasks.c **** 																										\
 158:../src/RTOS/tasks.c **** 		/* Find the highest priority queue that contains ready tasks. */								\
 159:../src/RTOS/tasks.c **** 		while( listLIST_IS_EMPTY( &( pxReadyTasksLists[ uxTopPriority ] ) ) )							\
 160:../src/RTOS/tasks.c **** 		{																								\
 161:../src/RTOS/tasks.c **** 			configASSERT( uxTopPriority );																\
 162:../src/RTOS/tasks.c **** 			--uxTopPriority;																			\
 163:../src/RTOS/tasks.c **** 		}																								\
 164:../src/RTOS/tasks.c **** 																										\
 165:../src/RTOS/tasks.c **** 		/* listGET_OWNER_OF_NEXT_ENTRY indexes through the list, so the tasks of						\
 166:../src/RTOS/tasks.c **** 		the	same priority get an equal share of the processor time. */									\
 167:../src/RTOS/tasks.c **** 		listGET_OWNER_OF_NEXT_ENTRY( pxCurrentTCB, &( pxReadyTasksLists[ uxTopPriority ] ) );			\
 168:../src/RTOS/tasks.c **** 		uxTopReadyPriority = uxTopPriority;																\
 169:../src/RTOS/tasks.c **** 	} /* taskSELECT_HIGHEST_PRIORITY_TASK */
 170:../src/RTOS/tasks.c **** 
 171:../src/RTOS/tasks.c **** 	/*-----------------------------------------------------------*/
 172:../src/RTOS/tasks.c **** 
 173:../src/RTOS/tasks.c **** 	/* Define away taskRESET_READY_PRIORITY() and portRESET_READY_PRIORITY() as
 174:../src/RTOS/tasks.c **** 	they are only required when a port optimised method of task selection is
 175:../src/RTOS/tasks.c **** 	being used. */
 176:../src/RTOS/tasks.c **** 	#define taskRESET_READY_PRIORITY( uxPriority )
 177:../src/RTOS/tasks.c **** 	#define portRESET_READY_PRIORITY( uxPriority, uxTopReadyPriority )
 178:../src/RTOS/tasks.c **** 
 179:../src/RTOS/tasks.c **** #else /* configUSE_PORT_OPTIMISED_TASK_SELECTION */
 180:../src/RTOS/tasks.c **** 
 181:../src/RTOS/tasks.c **** 	/* If configUSE_PORT_OPTIMISED_TASK_SELECTION is 1 then task selection is
 182:../src/RTOS/tasks.c **** 	performed in a way that is tailored to the particular microcontroller
 183:../src/RTOS/tasks.c **** 	architecture being used. */
 184:../src/RTOS/tasks.c **** 
 185:../src/RTOS/tasks.c **** 	/* A port optimised version is provided.  Call the port defined macros. */
 186:../src/RTOS/tasks.c **** 	#define taskRECORD_READY_PRIORITY( uxPriority )	portRECORD_READY_PRIORITY( uxPriority, uxTopReadyP
 187:../src/RTOS/tasks.c **** 
 188:../src/RTOS/tasks.c **** 	/*-----------------------------------------------------------*/
 189:../src/RTOS/tasks.c **** 
 190:../src/RTOS/tasks.c **** 	#define taskSELECT_HIGHEST_PRIORITY_TASK()														\
 191:../src/RTOS/tasks.c **** 	{																								\
 192:../src/RTOS/tasks.c **** 	UBaseType_t uxTopPriority;																		\
 193:../src/RTOS/tasks.c **** 																									\
 194:../src/RTOS/tasks.c **** 		/* Find the highest priority list that contains ready tasks. */								\
 195:../src/RTOS/tasks.c **** 		portGET_HIGHEST_PRIORITY( uxTopPriority, uxTopReadyPriority );								\
 196:../src/RTOS/tasks.c **** 		configASSERT( listCURRENT_LIST_LENGTH( &( pxReadyTasksLists[ uxTopPriority ] ) ) > 0 );		\
 197:../src/RTOS/tasks.c **** 		listGET_OWNER_OF_NEXT_ENTRY( pxCurrentTCB, &( pxReadyTasksLists[ uxTopPriority ] ) );		\
 198:../src/RTOS/tasks.c **** 	} /* taskSELECT_HIGHEST_PRIORITY_TASK() */
 199:../src/RTOS/tasks.c **** 
 200:../src/RTOS/tasks.c **** 	/*-----------------------------------------------------------*/
 201:../src/RTOS/tasks.c **** 
 202:../src/RTOS/tasks.c **** 	/* A port optimised version is provided, call it only if the TCB being reset
 203:../src/RTOS/tasks.c **** 	is being referenced from a ready list.  If it is referenced from a delayed
 204:../src/RTOS/tasks.c **** 	or suspended list then it won't be in a ready list. */
 205:../src/RTOS/tasks.c **** 	#define taskRESET_READY_PRIORITY( uxPriority )														\
 206:../src/RTOS/tasks.c **** 	{																									\
 207:../src/RTOS/tasks.c **** 		if( listCURRENT_LIST_LENGTH( &( pxReadyTasksLists[ ( uxPriority ) ] ) ) == ( UBaseType_t ) 0 )	\
 208:../src/RTOS/tasks.c **** 		{																								\
 209:../src/RTOS/tasks.c **** 			portRESET_READY_PRIORITY( ( uxPriority ), ( uxTopReadyPriority ) );							\
 210:../src/RTOS/tasks.c **** 		}																								\
 211:../src/RTOS/tasks.c **** 	}
 212:../src/RTOS/tasks.c **** 
 213:../src/RTOS/tasks.c **** #endif /* configUSE_PORT_OPTIMISED_TASK_SELECTION */
 214:../src/RTOS/tasks.c **** 
 215:../src/RTOS/tasks.c **** /*-----------------------------------------------------------*/
 216:../src/RTOS/tasks.c **** 
 217:../src/RTOS/tasks.c **** /* pxDelayedTaskList and pxOverflowDelayedTaskList are switched when the tick
 218:../src/RTOS/tasks.c **** count overflows. */
 219:../src/RTOS/tasks.c **** #define taskSWITCH_DELAYED_LISTS()																	\
 220:../src/RTOS/tasks.c **** {																									\
 221:../src/RTOS/tasks.c **** 	List_t *pxTemp;																					\
 222:../src/RTOS/tasks.c **** 																									\
 223:../src/RTOS/tasks.c **** 	/* The delayed tasks list should be empty when the lists are switched. */						\
 224:../src/RTOS/tasks.c **** 	configASSERT( ( listLIST_IS_EMPTY( pxDelayedTaskList ) ) );										\
 225:../src/RTOS/tasks.c **** 																									\
 226:../src/RTOS/tasks.c **** 	pxTemp = pxDelayedTaskList;																		\
 227:../src/RTOS/tasks.c **** 	pxDelayedTaskList = pxOverflowDelayedTaskList;													\
 228:../src/RTOS/tasks.c **** 	pxOverflowDelayedTaskList = pxTemp;																\
 229:../src/RTOS/tasks.c **** 	xNumOfOverflows++;																				\
 230:../src/RTOS/tasks.c **** 	prvResetNextTaskUnblockTime();																	\
 231:../src/RTOS/tasks.c **** }
 232:../src/RTOS/tasks.c **** 
 233:../src/RTOS/tasks.c **** /*-----------------------------------------------------------*/
 234:../src/RTOS/tasks.c **** 
 235:../src/RTOS/tasks.c **** /*
 236:../src/RTOS/tasks.c ****  * Place the task represented by pxTCB into the appropriate ready list for
 237:../src/RTOS/tasks.c ****  * the task.  It is inserted at the end of the list.
 238:../src/RTOS/tasks.c ****  */
 239:../src/RTOS/tasks.c **** #define prvAddTaskToReadyList( pxTCB )																\
 240:../src/RTOS/tasks.c **** 	traceMOVED_TASK_TO_READY_STATE( pxTCB );														\
 241:../src/RTOS/tasks.c **** 	taskRECORD_READY_PRIORITY( ( pxTCB )->uxPriority );												\
 242:../src/RTOS/tasks.c **** 	vListInsertEnd( &( pxReadyTasksLists[ ( pxTCB )->uxPriority ] ), &( ( pxTCB )->xStateListItem ) );
 243:../src/RTOS/tasks.c **** 	tracePOST_MOVED_TASK_TO_READY_STATE( pxTCB )
 244:../src/RTOS/tasks.c **** /*-----------------------------------------------------------*/
 245:../src/RTOS/tasks.c **** 
 246:../src/RTOS/tasks.c **** /*
 247:../src/RTOS/tasks.c ****  * Several functions take an TaskHandle_t parameter that can optionally be NULL,
 248:../src/RTOS/tasks.c ****  * where NULL is used to indicate that the handle of the currently executing
 249:../src/RTOS/tasks.c ****  * task should be used in place of the parameter.  This macro simply checks to
 250:../src/RTOS/tasks.c ****  * see if the parameter is NULL and returns a pointer to the appropriate TCB.
 251:../src/RTOS/tasks.c ****  */
 252:../src/RTOS/tasks.c **** #define prvGetTCBFromHandle( pxHandle ) ( ( ( pxHandle ) == NULL ) ? ( TCB_t * ) pxCurrentTCB : ( T
 253:../src/RTOS/tasks.c **** 
 254:../src/RTOS/tasks.c **** /* The item value of the event list item is normally used to hold the priority
 255:../src/RTOS/tasks.c **** of the task to which it belongs (coded to allow it to be held in reverse
 256:../src/RTOS/tasks.c **** priority order).  However, it is occasionally borrowed for other purposes.  It
 257:../src/RTOS/tasks.c **** is important its value is not updated due to a task priority change while it is
 258:../src/RTOS/tasks.c **** being used for another purpose.  The following bit definition is used to inform
 259:../src/RTOS/tasks.c **** the scheduler that the value should not be changed - in which case it is the
 260:../src/RTOS/tasks.c **** responsibility of whichever module is using the value to ensure it gets set back
 261:../src/RTOS/tasks.c **** to its original value when it is released. */
 262:../src/RTOS/tasks.c **** #if( configUSE_16_BIT_TICKS == 1 )
 263:../src/RTOS/tasks.c **** 	#define taskEVENT_LIST_ITEM_VALUE_IN_USE	0x8000U
 264:../src/RTOS/tasks.c **** #else
 265:../src/RTOS/tasks.c **** 	#define taskEVENT_LIST_ITEM_VALUE_IN_USE	0x80000000UL
 266:../src/RTOS/tasks.c **** #endif
 267:../src/RTOS/tasks.c **** 
 268:../src/RTOS/tasks.c **** /*
 269:../src/RTOS/tasks.c ****  * Task control block.  A task control block (TCB) is allocated for each task,
 270:../src/RTOS/tasks.c ****  * and stores task state information, including a pointer to the task's context
 271:../src/RTOS/tasks.c ****  * (the task's run time environment, including register values)
 272:../src/RTOS/tasks.c ****  */
 273:../src/RTOS/tasks.c **** typedef struct tskTaskControlBlock
 274:../src/RTOS/tasks.c **** {
 275:../src/RTOS/tasks.c **** 	volatile StackType_t	*pxTopOfStack;	/*< Points to the location of the last item placed on the task
 276:../src/RTOS/tasks.c **** 
 277:../src/RTOS/tasks.c **** 	#if ( portUSING_MPU_WRAPPERS == 1 )
 278:../src/RTOS/tasks.c **** 		xMPU_SETTINGS	xMPUSettings;		/*< The MPU settings are defined as part of the port layer.  THIS MU
 279:../src/RTOS/tasks.c **** 	#endif
 280:../src/RTOS/tasks.c **** 
 281:../src/RTOS/tasks.c **** 	ListItem_t			xStateListItem;	/*< The list that the state list item of a task is reference from den
 282:../src/RTOS/tasks.c **** 	ListItem_t			xEventListItem;		/*< Used to reference a task from an event list. */
 283:../src/RTOS/tasks.c **** 	UBaseType_t			uxPriority;			/*< The priority of the task.  0 is the lowest priority. */
 284:../src/RTOS/tasks.c **** 	StackType_t			*pxStack;			/*< Points to the start of the stack. */
 285:../src/RTOS/tasks.c **** 	char				pcTaskName[ configMAX_TASK_NAME_LEN ];/*< Descriptive name given to the task when created.
 286:../src/RTOS/tasks.c **** 
 287:../src/RTOS/tasks.c **** 	#if ( portSTACK_GROWTH > 0 )
 288:../src/RTOS/tasks.c **** 		StackType_t		*pxEndOfStack;		/*< Points to the end of the stack on architectures where the stack 
 289:../src/RTOS/tasks.c **** 	#endif
 290:../src/RTOS/tasks.c **** 
 291:../src/RTOS/tasks.c **** 	#if ( portCRITICAL_NESTING_IN_TCB == 1 )
 292:../src/RTOS/tasks.c **** 		UBaseType_t		uxCriticalNesting;	/*< Holds the critical section nesting depth for ports that do no
 293:../src/RTOS/tasks.c **** 	#endif
 294:../src/RTOS/tasks.c **** 
 295:../src/RTOS/tasks.c **** 	#if ( configUSE_TRACE_FACILITY == 1 )
 296:../src/RTOS/tasks.c **** 		UBaseType_t		uxTCBNumber;		/*< Stores a number that increments each time a TCB is created.  It al
 297:../src/RTOS/tasks.c **** 		UBaseType_t		uxTaskNumber;		/*< Stores a number specifically for use by third party trace code. *
 298:../src/RTOS/tasks.c **** 	#endif
 299:../src/RTOS/tasks.c **** 
 300:../src/RTOS/tasks.c **** 	#if ( configUSE_MUTEXES == 1 )
 301:../src/RTOS/tasks.c **** 		UBaseType_t		uxBasePriority;		/*< The priority last assigned to the task - used by the priority i
 302:../src/RTOS/tasks.c **** 		UBaseType_t		uxMutexesHeld;
 303:../src/RTOS/tasks.c **** 	#endif
 304:../src/RTOS/tasks.c **** 
 305:../src/RTOS/tasks.c **** 	#if ( configUSE_APPLICATION_TASK_TAG == 1 )
 306:../src/RTOS/tasks.c **** 		TaskHookFunction_t pxTaskTag;
 307:../src/RTOS/tasks.c **** 	#endif
 308:../src/RTOS/tasks.c **** 
 309:../src/RTOS/tasks.c **** 	#if( configNUM_THREAD_LOCAL_STORAGE_POINTERS > 0 )
 310:../src/RTOS/tasks.c **** 		void *pvThreadLocalStoragePointers[ configNUM_THREAD_LOCAL_STORAGE_POINTERS ];
 311:../src/RTOS/tasks.c **** 	#endif
 312:../src/RTOS/tasks.c **** 
 313:../src/RTOS/tasks.c **** 	#if( configGENERATE_RUN_TIME_STATS == 1 )
 314:../src/RTOS/tasks.c **** 		uint32_t		ulRunTimeCounter;	/*< Stores the amount of time the task has spent in the Running state
 315:../src/RTOS/tasks.c **** 	#endif
 316:../src/RTOS/tasks.c **** 
 317:../src/RTOS/tasks.c **** 	#if ( configUSE_NEWLIB_REENTRANT == 1 )
 318:../src/RTOS/tasks.c **** 		/* Allocate a Newlib reent structure that is specific to this task.
 319:../src/RTOS/tasks.c **** 		Note Newlib support has been included by popular demand, but is not
 320:../src/RTOS/tasks.c **** 		used by the FreeRTOS maintainers themselves.  FreeRTOS is not
 321:../src/RTOS/tasks.c **** 		responsible for resulting newlib operation.  User must be familiar with
 322:../src/RTOS/tasks.c **** 		newlib and must provide system-wide implementations of the necessary
 323:../src/RTOS/tasks.c **** 		stubs. Be warned that (at the time of writing) the current newlib design
 324:../src/RTOS/tasks.c **** 		implements a system-wide malloc() that must be provided with locks. */
 325:../src/RTOS/tasks.c **** 		struct	_reent xNewLib_reent;
 326:../src/RTOS/tasks.c **** 	#endif
 327:../src/RTOS/tasks.c **** 
 328:../src/RTOS/tasks.c **** 	#if( configUSE_TASK_NOTIFICATIONS == 1 )
 329:../src/RTOS/tasks.c **** 		volatile uint32_t ulNotifiedValue;
 330:../src/RTOS/tasks.c **** 		volatile uint8_t ucNotifyState;
 331:../src/RTOS/tasks.c **** 	#endif
 332:../src/RTOS/tasks.c **** 
 333:../src/RTOS/tasks.c **** 	#if( ( configSUPPORT_STATIC_ALLOCATION == 1 ) && ( configSUPPORT_DYNAMIC_ALLOCATION == 1 ) )
 334:../src/RTOS/tasks.c **** 		uint8_t	ucStaticallyAllocated; /* Set to pdTRUE if the task is a statically allocated to ensure n
 335:../src/RTOS/tasks.c **** 	#endif
 336:../src/RTOS/tasks.c **** 
 337:../src/RTOS/tasks.c **** 	#if( INCLUDE_xTaskAbortDelay == 1 )
 338:../src/RTOS/tasks.c **** 		uint8_t ucDelayAborted;
 339:../src/RTOS/tasks.c **** 	#endif
 340:../src/RTOS/tasks.c **** 
 341:../src/RTOS/tasks.c **** } tskTCB;
 342:../src/RTOS/tasks.c **** 
 343:../src/RTOS/tasks.c **** /* The old tskTCB name is maintained above then typedefed to the new TCB_t name
 344:../src/RTOS/tasks.c **** below to enable the use of older kernel aware debuggers. */
 345:../src/RTOS/tasks.c **** typedef tskTCB TCB_t;
 346:../src/RTOS/tasks.c **** 
 347:../src/RTOS/tasks.c **** /*lint -e956 A manual analysis and inspection has been used to determine which
 348:../src/RTOS/tasks.c **** static variables must be declared volatile. */
 349:../src/RTOS/tasks.c **** 
 350:../src/RTOS/tasks.c **** PRIVILEGED_DATA TCB_t * volatile pxCurrentTCB = NULL;
 351:../src/RTOS/tasks.c **** 
 352:../src/RTOS/tasks.c **** /* Lists for ready and blocked tasks. --------------------*/
 353:../src/RTOS/tasks.c **** PRIVILEGED_DATA static List_t pxReadyTasksLists[ configMAX_PRIORITIES ];/*< Prioritised ready tasks
 354:../src/RTOS/tasks.c **** PRIVILEGED_DATA static List_t xDelayedTaskList1;						/*< Delayed tasks. */
 355:../src/RTOS/tasks.c **** PRIVILEGED_DATA static List_t xDelayedTaskList2;						/*< Delayed tasks (two lists are used - one f
 356:../src/RTOS/tasks.c **** PRIVILEGED_DATA static List_t * volatile pxDelayedTaskList;				/*< Points to the delayed task list 
 357:../src/RTOS/tasks.c **** PRIVILEGED_DATA static List_t * volatile pxOverflowDelayedTaskList;		/*< Points to the delayed task
 358:../src/RTOS/tasks.c **** PRIVILEGED_DATA static List_t xPendingReadyList;						/*< Tasks that have been readied while the sc
 359:../src/RTOS/tasks.c **** 
 360:../src/RTOS/tasks.c **** #if( INCLUDE_vTaskDelete == 1 )
 361:../src/RTOS/tasks.c **** 
 362:../src/RTOS/tasks.c **** 	PRIVILEGED_DATA static List_t xTasksWaitingTermination;				/*< Tasks that have been deleted - but 
 363:../src/RTOS/tasks.c **** 	PRIVILEGED_DATA static volatile UBaseType_t uxDeletedTasksWaitingCleanUp = ( UBaseType_t ) 0U;
 364:../src/RTOS/tasks.c **** 
 365:../src/RTOS/tasks.c **** #endif
 366:../src/RTOS/tasks.c **** 
 367:../src/RTOS/tasks.c **** #if ( INCLUDE_vTaskSuspend == 1 )
 368:../src/RTOS/tasks.c **** 
 369:../src/RTOS/tasks.c **** 	PRIVILEGED_DATA static List_t xSuspendedTaskList;					/*< Tasks that are currently suspended. */
 370:../src/RTOS/tasks.c **** 
 371:../src/RTOS/tasks.c **** #endif
 372:../src/RTOS/tasks.c **** 
 373:../src/RTOS/tasks.c **** /* Other file private variables. --------------------------------*/
 374:../src/RTOS/tasks.c **** PRIVILEGED_DATA static volatile UBaseType_t uxCurrentNumberOfTasks 	= ( UBaseType_t ) 0U;
 375:../src/RTOS/tasks.c **** PRIVILEGED_DATA static volatile TickType_t xTickCount 				= ( TickType_t ) 0U;
 376:../src/RTOS/tasks.c **** PRIVILEGED_DATA static volatile UBaseType_t uxTopReadyPriority 		= tskIDLE_PRIORITY;
 377:../src/RTOS/tasks.c **** PRIVILEGED_DATA static volatile BaseType_t xSchedulerRunning 		= pdFALSE;
 378:../src/RTOS/tasks.c **** PRIVILEGED_DATA static volatile UBaseType_t uxPendedTicks 			= ( UBaseType_t ) 0U;
 379:../src/RTOS/tasks.c **** PRIVILEGED_DATA static volatile BaseType_t xYieldPending 			= pdFALSE;
 380:../src/RTOS/tasks.c **** PRIVILEGED_DATA static volatile BaseType_t xNumOfOverflows 			= ( BaseType_t ) 0;
 381:../src/RTOS/tasks.c **** PRIVILEGED_DATA static UBaseType_t uxTaskNumber 					= ( UBaseType_t ) 0U;
 382:../src/RTOS/tasks.c **** PRIVILEGED_DATA static volatile TickType_t xNextTaskUnblockTime		= ( TickType_t ) 0U; /* Initialise
 383:../src/RTOS/tasks.c **** PRIVILEGED_DATA static TaskHandle_t xIdleTaskHandle					= NULL;			/*< Holds the handle of the idle 
 384:../src/RTOS/tasks.c **** 
 385:../src/RTOS/tasks.c **** /* Context switches are held pending while the scheduler is suspended.  Also,
 386:../src/RTOS/tasks.c **** interrupts must not manipulate the xStateListItem of a TCB, or any of the
 387:../src/RTOS/tasks.c **** lists the xStateListItem can be referenced from, if the scheduler is suspended.
 388:../src/RTOS/tasks.c **** If an interrupt needs to unblock a task while the scheduler is suspended then it
 389:../src/RTOS/tasks.c **** moves the task's event list item into the xPendingReadyList, ready for the
 390:../src/RTOS/tasks.c **** kernel to move the task from the pending ready list into the real ready list
 391:../src/RTOS/tasks.c **** when the scheduler is unsuspended.  The pending ready list itself can only be
 392:../src/RTOS/tasks.c **** accessed from a critical section. */
 393:../src/RTOS/tasks.c **** PRIVILEGED_DATA static volatile UBaseType_t uxSchedulerSuspended	= ( UBaseType_t ) pdFALSE;
 394:../src/RTOS/tasks.c **** 
 395:../src/RTOS/tasks.c **** #if ( configGENERATE_RUN_TIME_STATS == 1 )
 396:../src/RTOS/tasks.c **** 
 397:../src/RTOS/tasks.c **** 	PRIVILEGED_DATA static uint32_t ulTaskSwitchedInTime = 0UL;	/*< Holds the value of a timer/counter
 398:../src/RTOS/tasks.c **** 	PRIVILEGED_DATA static uint32_t ulTotalRunTime = 0UL;		/*< Holds the total amount of execution tim
 399:../src/RTOS/tasks.c **** 
 400:../src/RTOS/tasks.c **** #endif
 401:../src/RTOS/tasks.c **** 
 402:../src/RTOS/tasks.c **** /*lint +e956 */
 403:../src/RTOS/tasks.c **** 
 404:../src/RTOS/tasks.c **** /*-----------------------------------------------------------*/
 405:../src/RTOS/tasks.c **** 
 406:../src/RTOS/tasks.c **** /* Callback function prototypes. --------------------------*/
 407:../src/RTOS/tasks.c **** #if(  configCHECK_FOR_STACK_OVERFLOW > 0 )
 408:../src/RTOS/tasks.c **** 	extern void vApplicationStackOverflowHook( TaskHandle_t xTask, char *pcTaskName );
 409:../src/RTOS/tasks.c **** #endif
 410:../src/RTOS/tasks.c **** 
 411:../src/RTOS/tasks.c **** #if( configUSE_TICK_HOOK > 0 )
 412:../src/RTOS/tasks.c **** 	extern void vApplicationTickHook( void );
 413:../src/RTOS/tasks.c **** #endif
 414:../src/RTOS/tasks.c **** 
 415:../src/RTOS/tasks.c **** #if( configSUPPORT_STATIC_ALLOCATION == 1 )
 416:../src/RTOS/tasks.c **** 	extern void vApplicationGetIdleTaskMemory( StaticTask_t **ppxIdleTaskTCBBuffer, StackType_t **ppxI
 417:../src/RTOS/tasks.c **** #endif
 418:../src/RTOS/tasks.c **** 
 419:../src/RTOS/tasks.c **** /* File private functions. --------------------------------*/
 420:../src/RTOS/tasks.c **** 
 421:../src/RTOS/tasks.c **** /**
 422:../src/RTOS/tasks.c ****  * Utility task that simply returns pdTRUE if the task referenced by xTask is
 423:../src/RTOS/tasks.c ****  * currently in the Suspended state, or pdFALSE if the task referenced by xTask
 424:../src/RTOS/tasks.c ****  * is in any other state.
 425:../src/RTOS/tasks.c ****  */
 426:../src/RTOS/tasks.c **** #if ( INCLUDE_vTaskSuspend == 1 )
 427:../src/RTOS/tasks.c **** 	static BaseType_t prvTaskIsTaskSuspended( const TaskHandle_t xTask ) PRIVILEGED_FUNCTION;
 428:../src/RTOS/tasks.c **** #endif /* INCLUDE_vTaskSuspend */
 429:../src/RTOS/tasks.c **** 
 430:../src/RTOS/tasks.c **** /*
 431:../src/RTOS/tasks.c ****  * Utility to ready all the lists used by the scheduler.  This is called
 432:../src/RTOS/tasks.c ****  * automatically upon the creation of the first task.
 433:../src/RTOS/tasks.c ****  */
 434:../src/RTOS/tasks.c **** static void prvInitialiseTaskLists( void ) PRIVILEGED_FUNCTION;
 435:../src/RTOS/tasks.c **** 
 436:../src/RTOS/tasks.c **** /*
 437:../src/RTOS/tasks.c ****  * The idle task, which as all tasks is implemented as a never ending loop.
 438:../src/RTOS/tasks.c ****  * The idle task is automatically created and added to the ready lists upon
 439:../src/RTOS/tasks.c ****  * creation of the first user task.
 440:../src/RTOS/tasks.c ****  *
 441:../src/RTOS/tasks.c ****  * The portTASK_FUNCTION_PROTO() macro is used to allow port/compiler specific
 442:../src/RTOS/tasks.c ****  * language extensions.  The equivalent prototype for this function is:
 443:../src/RTOS/tasks.c ****  *
 444:../src/RTOS/tasks.c ****  * void prvIdleTask( void *pvParameters );
 445:../src/RTOS/tasks.c ****  *
 446:../src/RTOS/tasks.c ****  */
 447:../src/RTOS/tasks.c **** static portTASK_FUNCTION_PROTO( prvIdleTask, pvParameters );
 448:../src/RTOS/tasks.c **** 
 449:../src/RTOS/tasks.c **** /*
 450:../src/RTOS/tasks.c ****  * Utility to free all memory allocated by the scheduler to hold a TCB,
 451:../src/RTOS/tasks.c ****  * including the stack pointed to by the TCB.
 452:../src/RTOS/tasks.c ****  *
 453:../src/RTOS/tasks.c ****  * This does not free memory allocated by the task itself (i.e. memory
 454:../src/RTOS/tasks.c ****  * allocated by calls to pvPortMalloc from within the tasks application code).
 455:../src/RTOS/tasks.c ****  */
 456:../src/RTOS/tasks.c **** #if ( INCLUDE_vTaskDelete == 1 )
 457:../src/RTOS/tasks.c **** 
 458:../src/RTOS/tasks.c **** 	static void prvDeleteTCB( TCB_t *pxTCB ) PRIVILEGED_FUNCTION;
 459:../src/RTOS/tasks.c **** 
 460:../src/RTOS/tasks.c **** #endif
 461:../src/RTOS/tasks.c **** 
 462:../src/RTOS/tasks.c **** /*
 463:../src/RTOS/tasks.c ****  * Used only by the idle task.  This checks to see if anything has been placed
 464:../src/RTOS/tasks.c ****  * in the list of tasks waiting to be deleted.  If so the task is cleaned up
 465:../src/RTOS/tasks.c ****  * and its TCB deleted.
 466:../src/RTOS/tasks.c ****  */
 467:../src/RTOS/tasks.c **** static void prvCheckTasksWaitingTermination( void ) PRIVILEGED_FUNCTION;
 468:../src/RTOS/tasks.c **** 
 469:../src/RTOS/tasks.c **** /*
 470:../src/RTOS/tasks.c ****  * The currently executing task is entering the Blocked state.  Add the task to
 471:../src/RTOS/tasks.c ****  * either the current or the overflow delayed task list.
 472:../src/RTOS/tasks.c ****  */
 473:../src/RTOS/tasks.c **** static void prvAddCurrentTaskToDelayedList( TickType_t xTicksToWait, const BaseType_t xCanBlockInde
 474:../src/RTOS/tasks.c **** 
 475:../src/RTOS/tasks.c **** /*
 476:../src/RTOS/tasks.c ****  * Fills an TaskStatus_t structure with information on each task that is
 477:../src/RTOS/tasks.c ****  * referenced from the pxList list (which may be a ready list, a delayed list,
 478:../src/RTOS/tasks.c ****  * a suspended list, etc.).
 479:../src/RTOS/tasks.c ****  *
 480:../src/RTOS/tasks.c ****  * THIS FUNCTION IS INTENDED FOR DEBUGGING ONLY, AND SHOULD NOT BE CALLED FROM
 481:../src/RTOS/tasks.c ****  * NORMAL APPLICATION CODE.
 482:../src/RTOS/tasks.c ****  */
 483:../src/RTOS/tasks.c **** #if ( configUSE_TRACE_FACILITY == 1 )
 484:../src/RTOS/tasks.c **** 
 485:../src/RTOS/tasks.c **** 	static UBaseType_t prvListTasksWithinSingleList( TaskStatus_t *pxTaskStatusArray, List_t *pxList, 
 486:../src/RTOS/tasks.c **** 
 487:../src/RTOS/tasks.c **** #endif
 488:../src/RTOS/tasks.c **** 
 489:../src/RTOS/tasks.c **** /*
 490:../src/RTOS/tasks.c ****  * Searches pxList for a task with name pcNameToQuery - returning a handle to
 491:../src/RTOS/tasks.c ****  * the task if it is found, or NULL if the task is not found.
 492:../src/RTOS/tasks.c ****  */
 493:../src/RTOS/tasks.c **** #if ( INCLUDE_xTaskGetTaskHandle == 1 )
 494:../src/RTOS/tasks.c **** 
 495:../src/RTOS/tasks.c **** 	static TCB_t *prvSearchForNameWithinSingleList( List_t *pxList, const char pcNameToQuery[] ) PRIVI
 496:../src/RTOS/tasks.c **** 
 497:../src/RTOS/tasks.c **** #endif
 498:../src/RTOS/tasks.c **** 
 499:../src/RTOS/tasks.c **** /*
 500:../src/RTOS/tasks.c ****  * When a task is created, the stack of the task is filled with a known value.
 501:../src/RTOS/tasks.c ****  * This function determines the 'high water mark' of the task stack by
 502:../src/RTOS/tasks.c ****  * determining how much of the stack remains at the original preset value.
 503:../src/RTOS/tasks.c ****  */
 504:../src/RTOS/tasks.c **** #if ( ( configUSE_TRACE_FACILITY == 1 ) || ( INCLUDE_uxTaskGetStackHighWaterMark == 1 ) )
 505:../src/RTOS/tasks.c **** 
 506:../src/RTOS/tasks.c **** 	static uint16_t prvTaskCheckFreeStackSpace( const uint8_t * pucStackByte ) PRIVILEGED_FUNCTION;
 507:../src/RTOS/tasks.c **** 
 508:../src/RTOS/tasks.c **** #endif
 509:../src/RTOS/tasks.c **** 
 510:../src/RTOS/tasks.c **** /*
 511:../src/RTOS/tasks.c ****  * Return the amount of time, in ticks, that will pass before the kernel will
 512:../src/RTOS/tasks.c ****  * next move a task from the Blocked state to the Running state.
 513:../src/RTOS/tasks.c ****  *
 514:../src/RTOS/tasks.c ****  * This conditional compilation should use inequality to 0, not equality to 1.
 515:../src/RTOS/tasks.c ****  * This is to ensure portSUPPRESS_TICKS_AND_SLEEP() can be called when user
 516:../src/RTOS/tasks.c ****  * defined low power mode implementations require configUSE_TICKLESS_IDLE to be
 517:../src/RTOS/tasks.c ****  * set to a value other than 1.
 518:../src/RTOS/tasks.c ****  */
 519:../src/RTOS/tasks.c **** #if ( configUSE_TICKLESS_IDLE != 0 )
 520:../src/RTOS/tasks.c **** 
 521:../src/RTOS/tasks.c **** 	static TickType_t prvGetExpectedIdleTime( void ) PRIVILEGED_FUNCTION;
 522:../src/RTOS/tasks.c **** 
 523:../src/RTOS/tasks.c **** #endif
 524:../src/RTOS/tasks.c **** 
 525:../src/RTOS/tasks.c **** /*
 526:../src/RTOS/tasks.c ****  * Set xNextTaskUnblockTime to the time at which the next Blocked state task
 527:../src/RTOS/tasks.c ****  * will exit the Blocked state.
 528:../src/RTOS/tasks.c ****  */
 529:../src/RTOS/tasks.c **** static void prvResetNextTaskUnblockTime( void );
 530:../src/RTOS/tasks.c **** 
 531:../src/RTOS/tasks.c **** #if ( ( configUSE_TRACE_FACILITY == 1 ) && ( configUSE_STATS_FORMATTING_FUNCTIONS > 0 ) )
 532:../src/RTOS/tasks.c **** 
 533:../src/RTOS/tasks.c **** 	/*
 534:../src/RTOS/tasks.c **** 	 * Helper function used to pad task names with spaces when printing out
 535:../src/RTOS/tasks.c **** 	 * human readable tables of task information.
 536:../src/RTOS/tasks.c **** 	 */
 537:../src/RTOS/tasks.c **** 	static char *prvWriteNameToBuffer( char *pcBuffer, const char *pcTaskName ) PRIVILEGED_FUNCTION;
 538:../src/RTOS/tasks.c **** 
 539:../src/RTOS/tasks.c **** #endif
 540:../src/RTOS/tasks.c **** 
 541:../src/RTOS/tasks.c **** /*
 542:../src/RTOS/tasks.c ****  * Called after a Task_t structure has been allocated either statically or
 543:../src/RTOS/tasks.c ****  * dynamically to fill in the structure's members.
 544:../src/RTOS/tasks.c ****  */
 545:../src/RTOS/tasks.c **** static void prvInitialiseNewTask( TaskFunction_t pxTaskCode, const char * const pcName, const uint1
 546:../src/RTOS/tasks.c **** 
 547:../src/RTOS/tasks.c **** /*
 548:../src/RTOS/tasks.c ****  * Called after a new task has been created and initialised to place the task
 549:../src/RTOS/tasks.c ****  * under the control of the scheduler.
 550:../src/RTOS/tasks.c ****  */
 551:../src/RTOS/tasks.c **** static void prvAddNewTaskToReadyList( TCB_t *pxNewTCB ) PRIVILEGED_FUNCTION;
 552:../src/RTOS/tasks.c **** 
 553:../src/RTOS/tasks.c **** /*-----------------------------------------------------------*/
 554:../src/RTOS/tasks.c **** 
 555:../src/RTOS/tasks.c **** #if( configSUPPORT_STATIC_ALLOCATION == 1 )
 556:../src/RTOS/tasks.c **** 
 557:../src/RTOS/tasks.c **** 	BaseType_t xTaskCreateStatic( TaskFunction_t pxTaskCode, const char * const pcName, const uint16_t
 558:../src/RTOS/tasks.c **** 	{
 559:../src/RTOS/tasks.c **** 	TCB_t *pxNewTCB;
 560:../src/RTOS/tasks.c **** 	BaseType_t xReturn;
 561:../src/RTOS/tasks.c **** 
 562:../src/RTOS/tasks.c **** 		configASSERT( puxStackBuffer != NULL );
 563:../src/RTOS/tasks.c **** 		configASSERT( pxTaskBuffer != NULL );
 564:../src/RTOS/tasks.c **** 
 565:../src/RTOS/tasks.c **** 		if( ( pxTaskBuffer != NULL ) && ( puxStackBuffer != NULL ) )
 566:../src/RTOS/tasks.c **** 		{
 567:../src/RTOS/tasks.c **** 			/* The memory used for the task's TCB and stack are passed into this
 568:../src/RTOS/tasks.c **** 			function - use them. */
 569:../src/RTOS/tasks.c **** 			pxNewTCB = ( TCB_t * ) pxTaskBuffer; /*lint !e740 Unusual cast is ok as the structures are desig
 570:../src/RTOS/tasks.c **** 			pxNewTCB->pxStack = ( StackType_t * ) puxStackBuffer;
 571:../src/RTOS/tasks.c **** 
 572:../src/RTOS/tasks.c **** 			#if( configSUPPORT_DYNAMIC_ALLOCATION == 1 )
 573:../src/RTOS/tasks.c **** 			{
 574:../src/RTOS/tasks.c **** 				/* Tasks can be created statically or dynamically, so note this
 575:../src/RTOS/tasks.c **** 				task was created statically in case the task is later deleted. */
 576:../src/RTOS/tasks.c **** 				pxNewTCB->ucStaticallyAllocated = pdTRUE;
 577:../src/RTOS/tasks.c **** 			}
 578:../src/RTOS/tasks.c **** 			#endif /* configSUPPORT_DYNAMIC_ALLOCATION */
 579:../src/RTOS/tasks.c **** 
 580:../src/RTOS/tasks.c **** 			prvInitialiseNewTask( pxTaskCode, pcName, usStackDepth, pvParameters, uxPriority, pxCreatedTask,
 581:../src/RTOS/tasks.c **** 			prvAddNewTaskToReadyList( pxNewTCB );
 582:../src/RTOS/tasks.c **** 			xReturn = pdPASS;
 583:../src/RTOS/tasks.c **** 		}
 584:../src/RTOS/tasks.c **** 		else
 585:../src/RTOS/tasks.c **** 		{
 586:../src/RTOS/tasks.c **** 			xReturn = errCOULD_NOT_ALLOCATE_REQUIRED_MEMORY;
 587:../src/RTOS/tasks.c **** 		}
 588:../src/RTOS/tasks.c **** 
 589:../src/RTOS/tasks.c **** 		return xReturn;
 590:../src/RTOS/tasks.c **** 	}
 591:../src/RTOS/tasks.c **** 
 592:../src/RTOS/tasks.c **** #endif /* SUPPORT_STATIC_ALLOCATION */
 593:../src/RTOS/tasks.c **** /*-----------------------------------------------------------*/
 594:../src/RTOS/tasks.c **** 
 595:../src/RTOS/tasks.c **** #if( configSUPPORT_DYNAMIC_ALLOCATION == 1 )
 596:../src/RTOS/tasks.c **** 
 597:../src/RTOS/tasks.c **** 	BaseType_t xTaskCreate( TaskFunction_t pxTaskCode, const char * const pcName, const uint16_t usSta
 598:../src/RTOS/tasks.c **** 	{
 142              		.loc 1 598 0
 143              		.cfi_startproc
 144              		@ args = 8, pretend = 0, frame = 32
 145              		@ frame_needed = 1, uses_anonymous_args = 0
 146 0000 80B5     		push	{r7, lr}
 147              		.cfi_def_cfa_offset 8
 148              		.cfi_offset 7, -8
 149              		.cfi_offset 14, -4
 150 0002 8CB0     		sub	sp, sp, #48
 151              		.cfi_def_cfa_offset 56
 152 0004 04AF     		add	r7, sp, #16
 153              		.cfi_def_cfa 7, 40
 154 0006 F860     		str	r0, [r7, #12]
 155 0008 B960     		str	r1, [r7, #8]
 156 000a 3B60     		str	r3, [r7]
 157 000c 1346     		mov	r3, r2	@ movhi
 158 000e FB80     		strh	r3, [r7, #6]	@ movhi
 159              	.LBB18:
 599:../src/RTOS/tasks.c **** 	TCB_t *pxNewTCB;
 600:../src/RTOS/tasks.c **** 	BaseType_t xReturn;
 601:../src/RTOS/tasks.c **** 
 602:../src/RTOS/tasks.c **** 		/* If the stack grows down then allocate the stack then the TCB so the stack
 603:../src/RTOS/tasks.c **** 		does not grow into the TCB.  Likewise if the stack grows up then allocate
 604:../src/RTOS/tasks.c **** 		the TCB then the stack. */
 605:../src/RTOS/tasks.c **** 		#if( portSTACK_GROWTH > 0 )
 606:../src/RTOS/tasks.c **** 		{
 607:../src/RTOS/tasks.c **** 			/* Allocate space for the TCB.  Where the memory comes from depends on
 608:../src/RTOS/tasks.c **** 			the implementation of the port malloc function and whether or not static
 609:../src/RTOS/tasks.c **** 			allocation is being used. */
 610:../src/RTOS/tasks.c **** 			pxNewTCB = ( TCB_t * ) pvPortMalloc( sizeof( TCB_t ) );
 611:../src/RTOS/tasks.c **** 
 612:../src/RTOS/tasks.c **** 			if( pxNewTCB != NULL )
 613:../src/RTOS/tasks.c **** 			{
 614:../src/RTOS/tasks.c **** 				/* Allocate space for the stack used by the task being created.
 615:../src/RTOS/tasks.c **** 				The base of the stack memory stored in the TCB so the task can
 616:../src/RTOS/tasks.c **** 				be deleted later if required. */
 617:../src/RTOS/tasks.c **** 				pxNewTCB->pxStack = ( StackType_t * ) pvPortMalloc( ( ( ( size_t ) usStackDepth ) * sizeof( Sta
 618:../src/RTOS/tasks.c **** 
 619:../src/RTOS/tasks.c **** 				if( pxNewTCB->pxStack == NULL )
 620:../src/RTOS/tasks.c **** 				{
 621:../src/RTOS/tasks.c **** 					/* Could not allocate the stack.  Delete the allocated TCB. */
 622:../src/RTOS/tasks.c **** 					vPortFree( pxNewTCB );
 623:../src/RTOS/tasks.c **** 					pxNewTCB = NULL;
 624:../src/RTOS/tasks.c **** 				}
 625:../src/RTOS/tasks.c **** 			}
 626:../src/RTOS/tasks.c **** 		}
 627:../src/RTOS/tasks.c **** 		#else /* portSTACK_GROWTH */
 628:../src/RTOS/tasks.c **** 		{
 629:../src/RTOS/tasks.c **** 		StackType_t *pxStack;
 630:../src/RTOS/tasks.c **** 
 631:../src/RTOS/tasks.c **** 			/* Allocate space for the stack used by the task being created. */
 632:../src/RTOS/tasks.c **** 			pxStack = ( StackType_t * ) pvPortMalloc( ( ( ( size_t ) usStackDepth ) * sizeof( StackType_t ) 
 160              		.loc 1 632 0
 161 0010 FB88     		ldrh	r3, [r7, #6]
 162 0012 9B00     		lsls	r3, r3, #2
 163 0014 1846     		mov	r0, r3
 164 0016 FFF7FEFF 		bl	pvPortMalloc
 165 001a 7861     		str	r0, [r7, #20]
 633:../src/RTOS/tasks.c **** 
 634:../src/RTOS/tasks.c **** 			if( pxStack != NULL )
 166              		.loc 1 634 0
 167 001c 7B69     		ldr	r3, [r7, #20]
 168 001e 002B     		cmp	r3, #0
 169 0020 0ED0     		beq	.L2
 635:../src/RTOS/tasks.c **** 			{
 636:../src/RTOS/tasks.c **** 				/* Allocate space for the TCB. */
 637:../src/RTOS/tasks.c **** 				pxNewTCB = ( TCB_t * ) pvPortMalloc( sizeof( TCB_t ) ); /*lint !e961 MISRA exception as the cas
 170              		.loc 1 637 0
 171 0022 4C20     		movs	r0, #76
 172 0024 FFF7FEFF 		bl	pvPortMalloc
 173 0028 F861     		str	r0, [r7, #28]
 638:../src/RTOS/tasks.c **** 
 639:../src/RTOS/tasks.c **** 				if( pxNewTCB != NULL )
 174              		.loc 1 639 0
 175 002a FB69     		ldr	r3, [r7, #28]
 176 002c 002B     		cmp	r3, #0
 177 002e 03D0     		beq	.L3
 640:../src/RTOS/tasks.c **** 				{
 641:../src/RTOS/tasks.c **** 					/* Store the stack location in the TCB. */
 642:../src/RTOS/tasks.c **** 					pxNewTCB->pxStack = pxStack;
 178              		.loc 1 642 0
 179 0030 FB69     		ldr	r3, [r7, #28]
 180 0032 7A69     		ldr	r2, [r7, #20]
 181 0034 1A63     		str	r2, [r3, #48]
 182 0036 05E0     		b	.L5
 183              	.L3:
 643:../src/RTOS/tasks.c **** 				}
 644:../src/RTOS/tasks.c **** 				else
 645:../src/RTOS/tasks.c **** 				{
 646:../src/RTOS/tasks.c **** 					/* The stack cannot be used as the TCB was not created.  Free
 647:../src/RTOS/tasks.c **** 					it again. */
 648:../src/RTOS/tasks.c **** 					vPortFree( pxStack );
 184              		.loc 1 648 0
 185 0038 7869     		ldr	r0, [r7, #20]
 186 003a FFF7FEFF 		bl	vPortFree
 187 003e 01E0     		b	.L5
 188              	.L2:
 649:../src/RTOS/tasks.c **** 				}
 650:../src/RTOS/tasks.c **** 			}
 651:../src/RTOS/tasks.c **** 			else
 652:../src/RTOS/tasks.c **** 			{
 653:../src/RTOS/tasks.c **** 				pxNewTCB = NULL;
 189              		.loc 1 653 0
 190 0040 0023     		movs	r3, #0
 191 0042 FB61     		str	r3, [r7, #28]
 192              	.L5:
 193              	.LBE18:
 654:../src/RTOS/tasks.c **** 			}
 655:../src/RTOS/tasks.c **** 		}
 656:../src/RTOS/tasks.c **** 		#endif /* portSTACK_GROWTH */
 657:../src/RTOS/tasks.c **** 
 658:../src/RTOS/tasks.c **** 		if( pxNewTCB != NULL )
 194              		.loc 1 658 0
 195 0044 FB69     		ldr	r3, [r7, #28]
 196 0046 002B     		cmp	r3, #0
 197 0048 11D0     		beq	.L6
 659:../src/RTOS/tasks.c **** 		{
 660:../src/RTOS/tasks.c **** 			#if( configSUPPORT_STATIC_ALLOCATION == 1 )
 661:../src/RTOS/tasks.c **** 			{
 662:../src/RTOS/tasks.c **** 				/* Tasks can be created statically or dynamically, so note this
 663:../src/RTOS/tasks.c **** 				task was created dynamically in case it is later deleted. */
 664:../src/RTOS/tasks.c **** 				pxNewTCB->ucStaticallyAllocated = pdFALSE;
 665:../src/RTOS/tasks.c **** 			}
 666:../src/RTOS/tasks.c **** 			#endif /* configSUPPORT_STATIC_ALLOCATION */
 667:../src/RTOS/tasks.c **** 
 668:../src/RTOS/tasks.c **** 			prvInitialiseNewTask( pxTaskCode, pcName, usStackDepth, pvParameters, uxPriority, pxCreatedTask,
 198              		.loc 1 668 0
 199 004a FA88     		ldrh	r2, [r7, #6]
 200 004c BB6A     		ldr	r3, [r7, #40]
 201 004e 0093     		str	r3, [sp]
 202 0050 FB6A     		ldr	r3, [r7, #44]
 203 0052 0193     		str	r3, [sp, #4]
 204 0054 FB69     		ldr	r3, [r7, #28]
 205 0056 0293     		str	r3, [sp, #8]
 206 0058 F868     		ldr	r0, [r7, #12]
 207 005a B968     		ldr	r1, [r7, #8]
 208 005c 3B68     		ldr	r3, [r7]
 209 005e FFF7FEFF 		bl	prvInitialiseNewTask
 669:../src/RTOS/tasks.c **** 			prvAddNewTaskToReadyList( pxNewTCB );
 210              		.loc 1 669 0
 211 0062 F869     		ldr	r0, [r7, #28]
 212 0064 FFF7FEFF 		bl	prvAddNewTaskToReadyList
 670:../src/RTOS/tasks.c **** 			xReturn = pdPASS;
 213              		.loc 1 670 0
 214 0068 0123     		movs	r3, #1
 215 006a BB61     		str	r3, [r7, #24]
 216 006c 02E0     		b	.L7
 217              	.L6:
 671:../src/RTOS/tasks.c **** 		}
 672:../src/RTOS/tasks.c **** 		else
 673:../src/RTOS/tasks.c **** 		{
 674:../src/RTOS/tasks.c **** 			xReturn = errCOULD_NOT_ALLOCATE_REQUIRED_MEMORY;
 218              		.loc 1 674 0
 219 006e 4FF0FF33 		mov	r3, #-1
 220 0072 BB61     		str	r3, [r7, #24]
 221              	.L7:
 675:../src/RTOS/tasks.c **** 		}
 676:../src/RTOS/tasks.c **** 
 677:../src/RTOS/tasks.c **** 		return xReturn;
 222              		.loc 1 677 0
 223 0074 BB69     		ldr	r3, [r7, #24]
 678:../src/RTOS/tasks.c **** 	}
 224              		.loc 1 678 0
 225 0076 1846     		mov	r0, r3
 226 0078 2037     		adds	r7, r7, #32
 227              		.cfi_def_cfa_offset 8
 228 007a BD46     		mov	sp, r7
 229              		.cfi_def_cfa_register 13
 230              		@ sp needed
 231 007c 80BD     		pop	{r7, pc}
 232              		.cfi_endproc
 233              	.LFE4:
 235 007e 00BF     		.section	.text.prvInitialiseNewTask,"ax",%progbits
 236              		.align	2
 237              		.thumb
 238              		.thumb_func
 240              	prvInitialiseNewTask:
 241              	.LFB5:
 679:../src/RTOS/tasks.c **** 
 680:../src/RTOS/tasks.c **** #endif /* configSUPPORT_DYNAMIC_ALLOCATION */
 681:../src/RTOS/tasks.c **** /*-----------------------------------------------------------*/
 682:../src/RTOS/tasks.c **** 
 683:../src/RTOS/tasks.c **** static void prvInitialiseNewTask( TaskFunction_t pxTaskCode, const char * const pcName, const uint1
 684:../src/RTOS/tasks.c **** {
 242              		.loc 1 684 0
 243              		.cfi_startproc
 244              		@ args = 12, pretend = 0, frame = 24
 245              		@ frame_needed = 1, uses_anonymous_args = 0
 246 0000 80B5     		push	{r7, lr}
 247              		.cfi_def_cfa_offset 8
 248              		.cfi_offset 7, -8
 249              		.cfi_offset 14, -4
 250 0002 86B0     		sub	sp, sp, #24
 251              		.cfi_def_cfa_offset 32
 252 0004 00AF     		add	r7, sp, #0
 253              		.cfi_def_cfa_register 7
 254 0006 F860     		str	r0, [r7, #12]
 255 0008 B960     		str	r1, [r7, #8]
 256 000a 3B60     		str	r3, [r7]
 257 000c 1346     		mov	r3, r2	@ movhi
 258 000e FB80     		strh	r3, [r7, #6]	@ movhi
 685:../src/RTOS/tasks.c **** StackType_t *pxTopOfStack;
 686:../src/RTOS/tasks.c **** UBaseType_t x;
 687:../src/RTOS/tasks.c **** 
 688:../src/RTOS/tasks.c **** 	#if( portUSING_MPU_WRAPPERS == 1 )
 689:../src/RTOS/tasks.c **** 		/* Should the task be created in privileged mode? */
 690:../src/RTOS/tasks.c **** 		BaseType_t xRunPrivileged;
 691:../src/RTOS/tasks.c **** 		if( ( uxPriority & portPRIVILEGE_BIT ) != 0U )
 692:../src/RTOS/tasks.c **** 		{
 693:../src/RTOS/tasks.c **** 			xRunPrivileged = pdTRUE;
 694:../src/RTOS/tasks.c **** 		}
 695:../src/RTOS/tasks.c **** 		else
 696:../src/RTOS/tasks.c **** 		{
 697:../src/RTOS/tasks.c **** 			xRunPrivileged = pdFALSE;
 698:../src/RTOS/tasks.c **** 		}
 699:../src/RTOS/tasks.c **** 		uxPriority &= ~portPRIVILEGE_BIT;
 700:../src/RTOS/tasks.c **** 	#endif /* portUSING_MPU_WRAPPERS == 1 */
 701:../src/RTOS/tasks.c **** 
 702:../src/RTOS/tasks.c **** 	/* Avoid dependency on memset() if it is not required. */
 703:../src/RTOS/tasks.c **** 	#if( ( configCHECK_FOR_STACK_OVERFLOW > 1 ) || ( configUSE_TRACE_FACILITY == 1 ) || ( INCLUDE_uxTa
 704:../src/RTOS/tasks.c **** 	{
 705:../src/RTOS/tasks.c **** 		/* Fill the stack with a known value to assist debugging. */
 706:../src/RTOS/tasks.c **** 		( void ) memset( pxNewTCB->pxStack, ( int ) tskSTACK_FILL_BYTE, ( size_t ) usStackDepth * sizeof(
 707:../src/RTOS/tasks.c **** 	}
 708:../src/RTOS/tasks.c **** 	#endif /* ( ( configCHECK_FOR_STACK_OVERFLOW > 1 ) || ( ( configUSE_TRACE_FACILITY == 1 ) || ( INC
 709:../src/RTOS/tasks.c **** 
 710:../src/RTOS/tasks.c **** 	/* Calculate the top of stack address.  This depends on whether the stack
 711:../src/RTOS/tasks.c **** 	grows from high memory to low (as per the 80x86) or vice versa.
 712:../src/RTOS/tasks.c **** 	portSTACK_GROWTH is used to make the result positive or negative as required
 713:../src/RTOS/tasks.c **** 	by the port. */
 714:../src/RTOS/tasks.c **** 	#if( portSTACK_GROWTH < 0 )
 715:../src/RTOS/tasks.c **** 	{
 716:../src/RTOS/tasks.c **** 		pxTopOfStack = pxNewTCB->pxStack + ( usStackDepth - ( uint16_t ) 1 );
 259              		.loc 1 716 0
 260 0010 BB6A     		ldr	r3, [r7, #40]
 261 0012 1A6B     		ldr	r2, [r3, #48]
 262 0014 FB88     		ldrh	r3, [r7, #6]
 263 0016 03F18043 		add	r3, r3, #1073741824
 264 001a 013B     		subs	r3, r3, #1
 265 001c 9B00     		lsls	r3, r3, #2
 266 001e 1344     		add	r3, r3, r2
 267 0020 3B61     		str	r3, [r7, #16]
 717:../src/RTOS/tasks.c **** 		pxTopOfStack = ( StackType_t * ) ( ( ( portPOINTER_SIZE_TYPE ) pxTopOfStack ) & ( ~( ( portPOINTE
 268              		.loc 1 717 0
 269 0022 3B69     		ldr	r3, [r7, #16]
 270 0024 23F00703 		bic	r3, r3, #7
 271 0028 3B61     		str	r3, [r7, #16]
 718:../src/RTOS/tasks.c **** 
 719:../src/RTOS/tasks.c **** 		/* Check the alignment of the calculated top of stack is correct. */
 720:../src/RTOS/tasks.c **** 		configASSERT( ( ( ( portPOINTER_SIZE_TYPE ) pxTopOfStack & ( portPOINTER_SIZE_TYPE ) portBYTE_ALI
 272              		.loc 1 720 0
 273 002a 3B69     		ldr	r3, [r7, #16]
 274 002c 03F00703 		and	r3, r3, #7
 275 0030 002B     		cmp	r3, #0
 276 0032 00D0     		beq	.L10
 277              	.L11:
 278              		.loc 1 720 0 is_stmt 0 discriminator 1
 279 0034 FEE7     		b	.L11
 280              	.L10:
 721:../src/RTOS/tasks.c **** 	}
 722:../src/RTOS/tasks.c **** 	#else /* portSTACK_GROWTH */
 723:../src/RTOS/tasks.c **** 	{
 724:../src/RTOS/tasks.c **** 		pxTopOfStack = pxNewTCB->pxStack;
 725:../src/RTOS/tasks.c **** 
 726:../src/RTOS/tasks.c **** 		/* Check the alignment of the stack buffer is correct. */
 727:../src/RTOS/tasks.c **** 		configASSERT( ( ( ( portPOINTER_SIZE_TYPE ) pxNewTCB->pxStack & ( portPOINTER_SIZE_TYPE ) portBYT
 728:../src/RTOS/tasks.c **** 
 729:../src/RTOS/tasks.c **** 		/* The other extreme of the stack space is required if stack checking is
 730:../src/RTOS/tasks.c **** 		performed. */
 731:../src/RTOS/tasks.c **** 		pxNewTCB->pxEndOfStack = pxNewTCB->pxStack + ( usStackDepth - ( uint16_t ) 1 );
 732:../src/RTOS/tasks.c **** 	}
 733:../src/RTOS/tasks.c **** 	#endif /* portSTACK_GROWTH */
 734:../src/RTOS/tasks.c **** 
 735:../src/RTOS/tasks.c **** 	/* Store the task name in the TCB. */
 736:../src/RTOS/tasks.c **** 	for( x = ( UBaseType_t ) 0; x < ( UBaseType_t ) configMAX_TASK_NAME_LEN; x++ )
 281              		.loc 1 736 0 is_stmt 1
 282 0036 0023     		movs	r3, #0
 283 0038 7B61     		str	r3, [r7, #20]
 284 003a 13E0     		b	.L12
 285              	.L15:
 737:../src/RTOS/tasks.c **** 	{
 738:../src/RTOS/tasks.c **** 		pxNewTCB->pcTaskName[ x ] = pcName[ x ];
 286              		.loc 1 738 0
 287 003c BA68     		ldr	r2, [r7, #8]
 288 003e 7B69     		ldr	r3, [r7, #20]
 289 0040 1344     		add	r3, r3, r2
 290 0042 1978     		ldrb	r1, [r3]	@ zero_extendqisi2
 291 0044 BA6A     		ldr	r2, [r7, #40]
 292 0046 7B69     		ldr	r3, [r7, #20]
 293 0048 1344     		add	r3, r3, r2
 294 004a 3033     		adds	r3, r3, #48
 295 004c 0A46     		mov	r2, r1
 296 004e 1A71     		strb	r2, [r3, #4]
 739:../src/RTOS/tasks.c **** 
 740:../src/RTOS/tasks.c **** 		/* Don't copy all configMAX_TASK_NAME_LEN if the string is shorter than
 741:../src/RTOS/tasks.c **** 		configMAX_TASK_NAME_LEN characters just in case the memory after the
 742:../src/RTOS/tasks.c **** 		string is not accessible (extremely unlikely). */
 743:../src/RTOS/tasks.c **** 		if( pcName[ x ] == 0x00 )
 297              		.loc 1 743 0
 298 0050 BA68     		ldr	r2, [r7, #8]
 299 0052 7B69     		ldr	r3, [r7, #20]
 300 0054 1344     		add	r3, r3, r2
 301 0056 1B78     		ldrb	r3, [r3]	@ zero_extendqisi2
 302 0058 002B     		cmp	r3, #0
 303 005a 00D1     		bne	.L13
 744:../src/RTOS/tasks.c **** 		{
 745:../src/RTOS/tasks.c **** 			break;
 304              		.loc 1 745 0
 305 005c 05E0     		b	.L14
 306              	.L13:
 736:../src/RTOS/tasks.c **** 	{
 307              		.loc 1 736 0 discriminator 2
 308 005e 7B69     		ldr	r3, [r7, #20]
 309 0060 0133     		adds	r3, r3, #1
 310 0062 7B61     		str	r3, [r7, #20]
 311              	.L12:
 736:../src/RTOS/tasks.c **** 	{
 312              		.loc 1 736 0 is_stmt 0 discriminator 1
 313 0064 7B69     		ldr	r3, [r7, #20]
 314 0066 042B     		cmp	r3, #4
 315 0068 E8D9     		bls	.L15
 316              	.L14:
 746:../src/RTOS/tasks.c **** 		}
 747:../src/RTOS/tasks.c **** 		else
 748:../src/RTOS/tasks.c **** 		{
 749:../src/RTOS/tasks.c **** 			mtCOVERAGE_TEST_MARKER();
 750:../src/RTOS/tasks.c **** 		}
 751:../src/RTOS/tasks.c **** 	}
 752:../src/RTOS/tasks.c **** 
 753:../src/RTOS/tasks.c **** 	/* Ensure the name string is terminated in the case that the string length
 754:../src/RTOS/tasks.c **** 	was greater or equal to configMAX_TASK_NAME_LEN. */
 755:../src/RTOS/tasks.c **** 	pxNewTCB->pcTaskName[ configMAX_TASK_NAME_LEN - 1 ] = '\0';
 317              		.loc 1 755 0 is_stmt 1
 318 006a BB6A     		ldr	r3, [r7, #40]
 319 006c 0022     		movs	r2, #0
 320 006e 83F83820 		strb	r2, [r3, #56]
 756:../src/RTOS/tasks.c **** 
 757:../src/RTOS/tasks.c **** 	/* This is used as an array index so must ensure it's not too large.  First
 758:../src/RTOS/tasks.c **** 	remove the privilege bit if one is present. */
 759:../src/RTOS/tasks.c **** 	if( uxPriority >= ( UBaseType_t ) configMAX_PRIORITIES )
 321              		.loc 1 759 0
 322 0072 3B6A     		ldr	r3, [r7, #32]
 323 0074 092B     		cmp	r3, #9
 324 0076 01D9     		bls	.L16
 760:../src/RTOS/tasks.c **** 	{
 761:../src/RTOS/tasks.c **** 		uxPriority = ( UBaseType_t ) configMAX_PRIORITIES - ( UBaseType_t ) 1U;
 325              		.loc 1 761 0
 326 0078 0923     		movs	r3, #9
 327 007a 3B62     		str	r3, [r7, #32]
 328              	.L16:
 762:../src/RTOS/tasks.c **** 	}
 763:../src/RTOS/tasks.c **** 	else
 764:../src/RTOS/tasks.c **** 	{
 765:../src/RTOS/tasks.c **** 		mtCOVERAGE_TEST_MARKER();
 766:../src/RTOS/tasks.c **** 	}
 767:../src/RTOS/tasks.c **** 
 768:../src/RTOS/tasks.c **** 	pxNewTCB->uxPriority = uxPriority;
 329              		.loc 1 768 0
 330 007c BB6A     		ldr	r3, [r7, #40]
 331 007e 3A6A     		ldr	r2, [r7, #32]
 332 0080 DA62     		str	r2, [r3, #44]
 769:../src/RTOS/tasks.c **** 	#if ( configUSE_MUTEXES == 1 )
 770:../src/RTOS/tasks.c **** 	{
 771:../src/RTOS/tasks.c **** 		pxNewTCB->uxBasePriority = uxPriority;
 333              		.loc 1 771 0
 334 0082 BB6A     		ldr	r3, [r7, #40]
 335 0084 3A6A     		ldr	r2, [r7, #32]
 336 0086 DA63     		str	r2, [r3, #60]
 772:../src/RTOS/tasks.c **** 		pxNewTCB->uxMutexesHeld = 0;
 337              		.loc 1 772 0
 338 0088 BB6A     		ldr	r3, [r7, #40]
 339 008a 0022     		movs	r2, #0
 340 008c 1A64     		str	r2, [r3, #64]
 773:../src/RTOS/tasks.c **** 	}
 774:../src/RTOS/tasks.c **** 	#endif /* configUSE_MUTEXES */
 775:../src/RTOS/tasks.c **** 
 776:../src/RTOS/tasks.c **** 	vListInitialiseItem( &( pxNewTCB->xStateListItem ) );
 341              		.loc 1 776 0
 342 008e BB6A     		ldr	r3, [r7, #40]
 343 0090 0433     		adds	r3, r3, #4
 344 0092 1846     		mov	r0, r3
 345 0094 FFF7FEFF 		bl	vListInitialiseItem
 777:../src/RTOS/tasks.c **** 	vListInitialiseItem( &( pxNewTCB->xEventListItem ) );
 346              		.loc 1 777 0
 347 0098 BB6A     		ldr	r3, [r7, #40]
 348 009a 1833     		adds	r3, r3, #24
 349 009c 1846     		mov	r0, r3
 350 009e FFF7FEFF 		bl	vListInitialiseItem
 778:../src/RTOS/tasks.c **** 
 779:../src/RTOS/tasks.c **** 	/* Set the pxNewTCB as a link back from the ListItem_t.  This is so we can get
 780:../src/RTOS/tasks.c **** 	back to	the containing TCB from a generic item in a list. */
 781:../src/RTOS/tasks.c **** 	listSET_LIST_ITEM_OWNER( &( pxNewTCB->xStateListItem ), pxNewTCB );
 351              		.loc 1 781 0
 352 00a2 BB6A     		ldr	r3, [r7, #40]
 353 00a4 BA6A     		ldr	r2, [r7, #40]
 354 00a6 1A61     		str	r2, [r3, #16]
 782:../src/RTOS/tasks.c **** 
 783:../src/RTOS/tasks.c **** 	/* Event lists are always in priority order. */
 784:../src/RTOS/tasks.c **** 	listSET_LIST_ITEM_VALUE( &( pxNewTCB->xEventListItem ), ( TickType_t ) configMAX_PRIORITIES - ( Ti
 355              		.loc 1 784 0
 356 00a8 3B6A     		ldr	r3, [r7, #32]
 357 00aa C3F10A02 		rsb	r2, r3, #10
 358 00ae BB6A     		ldr	r3, [r7, #40]
 359 00b0 9A61     		str	r2, [r3, #24]
 785:../src/RTOS/tasks.c **** 	listSET_LIST_ITEM_OWNER( &( pxNewTCB->xEventListItem ), pxNewTCB );
 360              		.loc 1 785 0
 361 00b2 BB6A     		ldr	r3, [r7, #40]
 362 00b4 BA6A     		ldr	r2, [r7, #40]
 363 00b6 5A62     		str	r2, [r3, #36]
 786:../src/RTOS/tasks.c **** 
 787:../src/RTOS/tasks.c **** 	#if ( portCRITICAL_NESTING_IN_TCB == 1 )
 788:../src/RTOS/tasks.c **** 	{
 789:../src/RTOS/tasks.c **** 		pxNewTCB->uxCriticalNesting = ( UBaseType_t ) 0U;
 790:../src/RTOS/tasks.c **** 	}
 791:../src/RTOS/tasks.c **** 	#endif /* portCRITICAL_NESTING_IN_TCB */
 792:../src/RTOS/tasks.c **** 
 793:../src/RTOS/tasks.c **** 	#if ( configUSE_APPLICATION_TASK_TAG == 1 )
 794:../src/RTOS/tasks.c **** 	{
 795:../src/RTOS/tasks.c **** 		pxNewTCB->pxTaskTag = NULL;
 796:../src/RTOS/tasks.c **** 	}
 797:../src/RTOS/tasks.c **** 	#endif /* configUSE_APPLICATION_TASK_TAG */
 798:../src/RTOS/tasks.c **** 
 799:../src/RTOS/tasks.c **** 	#if ( configGENERATE_RUN_TIME_STATS == 1 )
 800:../src/RTOS/tasks.c **** 	{
 801:../src/RTOS/tasks.c **** 		pxNewTCB->ulRunTimeCounter = 0UL;
 802:../src/RTOS/tasks.c **** 	}
 803:../src/RTOS/tasks.c **** 	#endif /* configGENERATE_RUN_TIME_STATS */
 804:../src/RTOS/tasks.c **** 
 805:../src/RTOS/tasks.c **** 	#if ( portUSING_MPU_WRAPPERS == 1 )
 806:../src/RTOS/tasks.c **** 	{
 807:../src/RTOS/tasks.c **** 		vPortStoreTaskMPUSettings( &( pxNewTCB->xMPUSettings ), xRegions, pxNewTCB->pxStack, usStackDepth
 808:../src/RTOS/tasks.c **** 	}
 809:../src/RTOS/tasks.c **** 	#endif
 810:../src/RTOS/tasks.c **** 
 811:../src/RTOS/tasks.c **** 	#if( configNUM_THREAD_LOCAL_STORAGE_POINTERS != 0 )
 812:../src/RTOS/tasks.c **** 	{
 813:../src/RTOS/tasks.c **** 		for( x = 0; x < ( UBaseType_t ) configNUM_THREAD_LOCAL_STORAGE_POINTERS; x++ )
 814:../src/RTOS/tasks.c **** 		{
 815:../src/RTOS/tasks.c **** 			pxNewTCB->pvThreadLocalStoragePointers[ x ] = NULL;
 816:../src/RTOS/tasks.c **** 		}
 817:../src/RTOS/tasks.c **** 	}
 818:../src/RTOS/tasks.c **** 	#endif
 819:../src/RTOS/tasks.c **** 
 820:../src/RTOS/tasks.c **** 	#if ( configUSE_TASK_NOTIFICATIONS == 1 )
 821:../src/RTOS/tasks.c **** 	{
 822:../src/RTOS/tasks.c **** 		pxNewTCB->ulNotifiedValue = 0;
 364              		.loc 1 822 0
 365 00b8 BB6A     		ldr	r3, [r7, #40]
 366 00ba 0022     		movs	r2, #0
 367 00bc 5A64     		str	r2, [r3, #68]
 823:../src/RTOS/tasks.c **** 		pxNewTCB->ucNotifyState = taskNOT_WAITING_NOTIFICATION;
 368              		.loc 1 823 0
 369 00be BB6A     		ldr	r3, [r7, #40]
 370 00c0 0022     		movs	r2, #0
 371 00c2 83F84820 		strb	r2, [r3, #72]
 824:../src/RTOS/tasks.c **** 	}
 825:../src/RTOS/tasks.c **** 	#endif
 826:../src/RTOS/tasks.c **** 
 827:../src/RTOS/tasks.c **** 	#if ( configUSE_NEWLIB_REENTRANT == 1 )
 828:../src/RTOS/tasks.c **** 	{
 829:../src/RTOS/tasks.c **** 		/* Initialise this task's Newlib reent structure. */
 830:../src/RTOS/tasks.c **** 		_REENT_INIT_PTR( ( &( pxNewTCB->xNewLib_reent ) ) );
 831:../src/RTOS/tasks.c **** 	}
 832:../src/RTOS/tasks.c **** 	#endif
 833:../src/RTOS/tasks.c **** 
 834:../src/RTOS/tasks.c **** 	#if( INCLUDE_xTaskAbortDelay == 1 )
 835:../src/RTOS/tasks.c **** 	{
 836:../src/RTOS/tasks.c **** 		pxNewTCB->ucDelayAborted = pdFALSE;
 837:../src/RTOS/tasks.c **** 	}
 838:../src/RTOS/tasks.c **** 	#endif
 839:../src/RTOS/tasks.c **** 
 840:../src/RTOS/tasks.c **** 	/* Initialize the TCB stack to look as if the task was already running,
 841:../src/RTOS/tasks.c **** 	but had been interrupted by the scheduler.  The return address is set
 842:../src/RTOS/tasks.c **** 	to the start of the task function. Once the stack has been initialised
 843:../src/RTOS/tasks.c **** 	the	top of stack variable is updated. */
 844:../src/RTOS/tasks.c **** 	#if( portUSING_MPU_WRAPPERS == 1 )
 845:../src/RTOS/tasks.c **** 	{
 846:../src/RTOS/tasks.c **** 		pxNewTCB->pxTopOfStack = pxPortInitialiseStack( pxTopOfStack, pxTaskCode, pvParameters, xRunPrivi
 847:../src/RTOS/tasks.c **** 	}
 848:../src/RTOS/tasks.c **** 	#else /* portUSING_MPU_WRAPPERS */
 849:../src/RTOS/tasks.c **** 	{
 850:../src/RTOS/tasks.c **** 		pxNewTCB->pxTopOfStack = pxPortInitialiseStack( pxTopOfStack, pxTaskCode, pvParameters );
 372              		.loc 1 850 0
 373 00c6 3869     		ldr	r0, [r7, #16]
 374 00c8 F968     		ldr	r1, [r7, #12]
 375 00ca 3A68     		ldr	r2, [r7]
 376 00cc FFF7FEFF 		bl	pxPortInitialiseStack
 377 00d0 0246     		mov	r2, r0
 378 00d2 BB6A     		ldr	r3, [r7, #40]
 379 00d4 1A60     		str	r2, [r3]
 851:../src/RTOS/tasks.c **** 	}
 852:../src/RTOS/tasks.c **** 	#endif /* portUSING_MPU_WRAPPERS */
 853:../src/RTOS/tasks.c **** 
 854:../src/RTOS/tasks.c **** 	if( ( void * ) pxCreatedTask != NULL )
 380              		.loc 1 854 0
 381 00d6 7B6A     		ldr	r3, [r7, #36]
 382 00d8 002B     		cmp	r3, #0
 383 00da 02D0     		beq	.L9
 855:../src/RTOS/tasks.c **** 	{
 856:../src/RTOS/tasks.c **** 		/* Pass the handle out in an anonymous way.  The handle can be used to
 857:../src/RTOS/tasks.c **** 		change the created task's priority, delete the created task, etc.*/
 858:../src/RTOS/tasks.c **** 		*pxCreatedTask = ( TaskHandle_t ) pxNewTCB;
 384              		.loc 1 858 0
 385 00dc 7B6A     		ldr	r3, [r7, #36]
 386 00de BA6A     		ldr	r2, [r7, #40]
 387 00e0 1A60     		str	r2, [r3]
 388              	.L9:
 859:../src/RTOS/tasks.c **** 	}
 860:../src/RTOS/tasks.c **** 	else
 861:../src/RTOS/tasks.c **** 	{
 862:../src/RTOS/tasks.c **** 		mtCOVERAGE_TEST_MARKER();
 863:../src/RTOS/tasks.c **** 	}
 864:../src/RTOS/tasks.c **** }
 389              		.loc 1 864 0
 390 00e2 1837     		adds	r7, r7, #24
 391              		.cfi_def_cfa_offset 8
 392 00e4 BD46     		mov	sp, r7
 393              		.cfi_def_cfa_register 13
 394              		@ sp needed
 395 00e6 80BD     		pop	{r7, pc}
 396              		.cfi_endproc
 397              	.LFE5:
 399              		.section	.text.prvAddNewTaskToReadyList,"ax",%progbits
 400              		.align	2
 401              		.thumb
 402              		.thumb_func
 404              	prvAddNewTaskToReadyList:
 405              	.LFB6:
 865:../src/RTOS/tasks.c **** /*-----------------------------------------------------------*/
 866:../src/RTOS/tasks.c **** 
 867:../src/RTOS/tasks.c **** static void prvAddNewTaskToReadyList( TCB_t *pxNewTCB )
 868:../src/RTOS/tasks.c **** {
 406              		.loc 1 868 0
 407              		.cfi_startproc
 408              		@ args = 0, pretend = 0, frame = 8
 409              		@ frame_needed = 1, uses_anonymous_args = 0
 410 0000 80B5     		push	{r7, lr}
 411              		.cfi_def_cfa_offset 8
 412              		.cfi_offset 7, -8
 413              		.cfi_offset 14, -4
 414 0002 82B0     		sub	sp, sp, #8
 415              		.cfi_def_cfa_offset 16
 416 0004 00AF     		add	r7, sp, #0
 417              		.cfi_def_cfa_register 7
 418 0006 7860     		str	r0, [r7, #4]
 869:../src/RTOS/tasks.c **** 	/* Ensure interrupts don't access the task lists while the lists are being
 870:../src/RTOS/tasks.c **** 	updated. */
 871:../src/RTOS/tasks.c **** 	taskENTER_CRITICAL();
 419              		.loc 1 871 0
 420 0008 FFF7FEFF 		bl	vPortEnterCritical
 872:../src/RTOS/tasks.c **** 	{
 873:../src/RTOS/tasks.c **** 		uxCurrentNumberOfTasks++;
 421              		.loc 1 873 0
 422 000c 2A4B     		ldr	r3, .L23
 423 000e 1B68     		ldr	r3, [r3]
 424 0010 0133     		adds	r3, r3, #1
 425 0012 294A     		ldr	r2, .L23
 426 0014 1360     		str	r3, [r2]
 874:../src/RTOS/tasks.c **** 		if( pxCurrentTCB == NULL )
 427              		.loc 1 874 0
 428 0016 294B     		ldr	r3, .L23+4
 429 0018 1B68     		ldr	r3, [r3]
 430 001a 002B     		cmp	r3, #0
 431 001c 09D1     		bne	.L19
 875:../src/RTOS/tasks.c **** 		{
 876:../src/RTOS/tasks.c **** 			/* There are no other tasks, or all the other tasks are in
 877:../src/RTOS/tasks.c **** 			the suspended state - make this the current task. */
 878:../src/RTOS/tasks.c **** 			pxCurrentTCB = pxNewTCB;
 432              		.loc 1 878 0
 433 001e 274A     		ldr	r2, .L23+4
 434 0020 7B68     		ldr	r3, [r7, #4]
 435 0022 1360     		str	r3, [r2]
 879:../src/RTOS/tasks.c **** 
 880:../src/RTOS/tasks.c **** 			if( uxCurrentNumberOfTasks == ( UBaseType_t ) 1 )
 436              		.loc 1 880 0
 437 0024 244B     		ldr	r3, .L23
 438 0026 1B68     		ldr	r3, [r3]
 439 0028 012B     		cmp	r3, #1
 440 002a 10D1     		bne	.L20
 881:../src/RTOS/tasks.c **** 			{
 882:../src/RTOS/tasks.c **** 				/* This is the first task to be created so do the preliminary
 883:../src/RTOS/tasks.c **** 				initialisation required.  We will not recover if this call
 884:../src/RTOS/tasks.c **** 				fails, but we will report the failure. */
 885:../src/RTOS/tasks.c **** 				prvInitialiseTaskLists();
 441              		.loc 1 885 0
 442 002c FFF7FEFF 		bl	prvInitialiseTaskLists
 443 0030 0DE0     		b	.L20
 444              	.L19:
 886:../src/RTOS/tasks.c **** 			}
 887:../src/RTOS/tasks.c **** 			else
 888:../src/RTOS/tasks.c **** 			{
 889:../src/RTOS/tasks.c **** 				mtCOVERAGE_TEST_MARKER();
 890:../src/RTOS/tasks.c **** 			}
 891:../src/RTOS/tasks.c **** 		}
 892:../src/RTOS/tasks.c **** 		else
 893:../src/RTOS/tasks.c **** 		{
 894:../src/RTOS/tasks.c **** 			/* If the scheduler is not already running, make this task the
 895:../src/RTOS/tasks.c **** 			current task if it is the highest priority task to be created
 896:../src/RTOS/tasks.c **** 			so far. */
 897:../src/RTOS/tasks.c **** 			if( xSchedulerRunning == pdFALSE )
 445              		.loc 1 897 0
 446 0032 234B     		ldr	r3, .L23+8
 447 0034 1B68     		ldr	r3, [r3]
 448 0036 002B     		cmp	r3, #0
 449 0038 09D1     		bne	.L20
 898:../src/RTOS/tasks.c **** 			{
 899:../src/RTOS/tasks.c **** 				if( pxCurrentTCB->uxPriority <= pxNewTCB->uxPriority )
 450              		.loc 1 899 0
 451 003a 204B     		ldr	r3, .L23+4
 452 003c 1B68     		ldr	r3, [r3]
 453 003e DA6A     		ldr	r2, [r3, #44]
 454 0040 7B68     		ldr	r3, [r7, #4]
 455 0042 DB6A     		ldr	r3, [r3, #44]
 456 0044 9A42     		cmp	r2, r3
 457 0046 02D8     		bhi	.L20
 900:../src/RTOS/tasks.c **** 				{
 901:../src/RTOS/tasks.c **** 					pxCurrentTCB = pxNewTCB;
 458              		.loc 1 901 0
 459 0048 1C4A     		ldr	r2, .L23+4
 460 004a 7B68     		ldr	r3, [r7, #4]
 461 004c 1360     		str	r3, [r2]
 462              	.L20:
 902:../src/RTOS/tasks.c **** 				}
 903:../src/RTOS/tasks.c **** 				else
 904:../src/RTOS/tasks.c **** 				{
 905:../src/RTOS/tasks.c **** 					mtCOVERAGE_TEST_MARKER();
 906:../src/RTOS/tasks.c **** 				}
 907:../src/RTOS/tasks.c **** 			}
 908:../src/RTOS/tasks.c **** 			else
 909:../src/RTOS/tasks.c **** 			{
 910:../src/RTOS/tasks.c **** 				mtCOVERAGE_TEST_MARKER();
 911:../src/RTOS/tasks.c **** 			}
 912:../src/RTOS/tasks.c **** 		}
 913:../src/RTOS/tasks.c **** 
 914:../src/RTOS/tasks.c **** 		uxTaskNumber++;
 463              		.loc 1 914 0
 464 004e 1D4B     		ldr	r3, .L23+12
 465 0050 1B68     		ldr	r3, [r3]
 466 0052 0133     		adds	r3, r3, #1
 467 0054 1B4A     		ldr	r2, .L23+12
 468 0056 1360     		str	r3, [r2]
 915:../src/RTOS/tasks.c **** 
 916:../src/RTOS/tasks.c **** 		#if ( configUSE_TRACE_FACILITY == 1 )
 917:../src/RTOS/tasks.c **** 		{
 918:../src/RTOS/tasks.c **** 			/* Add a counter into the TCB for tracing only. */
 919:../src/RTOS/tasks.c **** 			pxNewTCB->uxTCBNumber = uxTaskNumber;
 920:../src/RTOS/tasks.c **** 		}
 921:../src/RTOS/tasks.c **** 		#endif /* configUSE_TRACE_FACILITY */
 922:../src/RTOS/tasks.c **** 		traceTASK_CREATE( pxNewTCB );
 923:../src/RTOS/tasks.c **** 
 924:../src/RTOS/tasks.c **** 		prvAddTaskToReadyList( pxNewTCB );
 469              		.loc 1 924 0
 470 0058 7B68     		ldr	r3, [r7, #4]
 471 005a DA6A     		ldr	r2, [r3, #44]
 472 005c 1A4B     		ldr	r3, .L23+16
 473 005e 1B68     		ldr	r3, [r3]
 474 0060 9A42     		cmp	r2, r3
 475 0062 03D9     		bls	.L21
 476              		.loc 1 924 0 is_stmt 0 discriminator 1
 477 0064 7B68     		ldr	r3, [r7, #4]
 478 0066 DB6A     		ldr	r3, [r3, #44]
 479 0068 174A     		ldr	r2, .L23+16
 480 006a 1360     		str	r3, [r2]
 481              	.L21:
 482              		.loc 1 924 0 discriminator 3
 483 006c 7B68     		ldr	r3, [r7, #4]
 484 006e DA6A     		ldr	r2, [r3, #44]
 485 0070 1346     		mov	r3, r2
 486 0072 9B00     		lsls	r3, r3, #2
 487 0074 1344     		add	r3, r3, r2
 488 0076 9B00     		lsls	r3, r3, #2
 489 0078 144A     		ldr	r2, .L23+20
 490 007a 1A44     		add	r2, r2, r3
 491 007c 7B68     		ldr	r3, [r7, #4]
 492 007e 0433     		adds	r3, r3, #4
 493 0080 1046     		mov	r0, r2
 494 0082 1946     		mov	r1, r3
 495 0084 FFF7FEFF 		bl	vListInsertEnd
 925:../src/RTOS/tasks.c **** 
 926:../src/RTOS/tasks.c **** 		portSETUP_TCB( pxNewTCB );
 927:../src/RTOS/tasks.c **** 	}
 928:../src/RTOS/tasks.c **** 	taskEXIT_CRITICAL();
 496              		.loc 1 928 0 is_stmt 1 discriminator 3
 497 0088 FFF7FEFF 		bl	vPortExitCritical
 929:../src/RTOS/tasks.c **** 
 930:../src/RTOS/tasks.c **** 	if( xSchedulerRunning != pdFALSE )
 498              		.loc 1 930 0 discriminator 3
 499 008c 0C4B     		ldr	r3, .L23+8
 500 008e 1B68     		ldr	r3, [r3]
 501 0090 002B     		cmp	r3, #0
 502 0092 0ED0     		beq	.L18
 931:../src/RTOS/tasks.c **** 	{
 932:../src/RTOS/tasks.c **** 		/* If the created task is of a higher priority than the current task
 933:../src/RTOS/tasks.c **** 		then it should run now. */
 934:../src/RTOS/tasks.c **** 		if( pxCurrentTCB->uxPriority < pxNewTCB->uxPriority )
 503              		.loc 1 934 0
 504 0094 094B     		ldr	r3, .L23+4
 505 0096 1B68     		ldr	r3, [r3]
 506 0098 DA6A     		ldr	r2, [r3, #44]
 507 009a 7B68     		ldr	r3, [r7, #4]
 508 009c DB6A     		ldr	r3, [r3, #44]
 509 009e 9A42     		cmp	r2, r3
 510 00a0 07D2     		bcs	.L18
 935:../src/RTOS/tasks.c **** 		{
 936:../src/RTOS/tasks.c **** 			taskYIELD_IF_USING_PREEMPTION();
 511              		.loc 1 936 0
 512 00a2 0B4B     		ldr	r3, .L23+24
 513 00a4 4FF08052 		mov	r2, #268435456
 514 00a8 1A60     		str	r2, [r3]
 515              	@ 936 "../src/RTOS/tasks.c" 1
 516 00aa BFF34F8F 		dsb
 517              	@ 0 "" 2
 518              	@ 936 "../src/RTOS/tasks.c" 1
 519 00ae BFF36F8F 		isb
 520              	@ 0 "" 2
 521              		.thumb
 522              	.L18:
 937:../src/RTOS/tasks.c **** 		}
 938:../src/RTOS/tasks.c **** 		else
 939:../src/RTOS/tasks.c **** 		{
 940:../src/RTOS/tasks.c **** 			mtCOVERAGE_TEST_MARKER();
 941:../src/RTOS/tasks.c **** 		}
 942:../src/RTOS/tasks.c **** 	}
 943:../src/RTOS/tasks.c **** 	else
 944:../src/RTOS/tasks.c **** 	{
 945:../src/RTOS/tasks.c **** 		mtCOVERAGE_TEST_MARKER();
 946:../src/RTOS/tasks.c **** 	}
 947:../src/RTOS/tasks.c **** }
 523              		.loc 1 947 0
 524 00b2 0837     		adds	r7, r7, #8
 525              		.cfi_def_cfa_offset 8
 526 00b4 BD46     		mov	sp, r7
 527              		.cfi_def_cfa_register 13
 528              		@ sp needed
 529 00b6 80BD     		pop	{r7, pc}
 530              	.L24:
 531              		.align	2
 532              	.L23:
 533 00b8 00000000 		.word	uxCurrentNumberOfTasks
 534 00bc 00000000 		.word	pxCurrentTCB
 535 00c0 00000000 		.word	xSchedulerRunning
 536 00c4 00000000 		.word	uxTaskNumber
 537 00c8 00000000 		.word	uxTopReadyPriority
 538 00cc 00000000 		.word	pxReadyTasksLists
 539 00d0 04ED00E0 		.word	-536810236
 540              		.cfi_endproc
 541              	.LFE6:
 543              		.section	.text.vTaskDelayUntil,"ax",%progbits
 544              		.align	2
 545              		.global	vTaskDelayUntil
 546              		.thumb
 547              		.thumb_func
 549              	vTaskDelayUntil:
 550              	.LFB7:
 948:../src/RTOS/tasks.c **** /*-----------------------------------------------------------*/
 949:../src/RTOS/tasks.c **** 
 950:../src/RTOS/tasks.c **** #if ( INCLUDE_vTaskDelete == 1 )
 951:../src/RTOS/tasks.c **** 
 952:../src/RTOS/tasks.c **** 	void vTaskDelete( TaskHandle_t xTaskToDelete )
 953:../src/RTOS/tasks.c **** 	{
 954:../src/RTOS/tasks.c **** 	TCB_t *pxTCB;
 955:../src/RTOS/tasks.c **** 
 956:../src/RTOS/tasks.c **** 		taskENTER_CRITICAL();
 957:../src/RTOS/tasks.c **** 		{
 958:../src/RTOS/tasks.c **** 			/* If null is passed in here then it is the calling task that is
 959:../src/RTOS/tasks.c **** 			being deleted. */
 960:../src/RTOS/tasks.c **** 			pxTCB = prvGetTCBFromHandle( xTaskToDelete );
 961:../src/RTOS/tasks.c **** 
 962:../src/RTOS/tasks.c **** 			/* Remove task from the ready list. */
 963:../src/RTOS/tasks.c **** 			if( uxListRemove( &( pxTCB->xStateListItem ) ) == ( UBaseType_t ) 0 )
 964:../src/RTOS/tasks.c **** 			{
 965:../src/RTOS/tasks.c **** 				taskRESET_READY_PRIORITY( pxTCB->uxPriority );
 966:../src/RTOS/tasks.c **** 			}
 967:../src/RTOS/tasks.c **** 			else
 968:../src/RTOS/tasks.c **** 			{
 969:../src/RTOS/tasks.c **** 				mtCOVERAGE_TEST_MARKER();
 970:../src/RTOS/tasks.c **** 			}
 971:../src/RTOS/tasks.c **** 
 972:../src/RTOS/tasks.c **** 			/* Is the task waiting on an event also? */
 973:../src/RTOS/tasks.c **** 			if( listLIST_ITEM_CONTAINER( &( pxTCB->xEventListItem ) ) != NULL )
 974:../src/RTOS/tasks.c **** 			{
 975:../src/RTOS/tasks.c **** 				( void ) uxListRemove( &( pxTCB->xEventListItem ) );
 976:../src/RTOS/tasks.c **** 			}
 977:../src/RTOS/tasks.c **** 			else
 978:../src/RTOS/tasks.c **** 			{
 979:../src/RTOS/tasks.c **** 				mtCOVERAGE_TEST_MARKER();
 980:../src/RTOS/tasks.c **** 			}
 981:../src/RTOS/tasks.c **** 
 982:../src/RTOS/tasks.c **** 			if( pxTCB == pxCurrentTCB )
 983:../src/RTOS/tasks.c **** 			{
 984:../src/RTOS/tasks.c **** 				/* A task is deleting itself.  This cannot complete within the
 985:../src/RTOS/tasks.c **** 				task itself, as a context switch to another task is required.
 986:../src/RTOS/tasks.c **** 				Place the task in the termination list.  The idle task will
 987:../src/RTOS/tasks.c **** 				check the termination list and free up any memory allocated by
 988:../src/RTOS/tasks.c **** 				the scheduler for the TCB and stack of the deleted task. */
 989:../src/RTOS/tasks.c **** 				vListInsertEnd( &xTasksWaitingTermination, &( pxTCB->xStateListItem ) );
 990:../src/RTOS/tasks.c **** 
 991:../src/RTOS/tasks.c **** 				/* Increment the ucTasksDeleted variable so the idle task knows
 992:../src/RTOS/tasks.c **** 				there is a task that has been deleted and that it should therefore
 993:../src/RTOS/tasks.c **** 				check the xTasksWaitingTermination list. */
 994:../src/RTOS/tasks.c **** 				++uxDeletedTasksWaitingCleanUp;
 995:../src/RTOS/tasks.c **** 			}
 996:../src/RTOS/tasks.c **** 			else
 997:../src/RTOS/tasks.c **** 			{
 998:../src/RTOS/tasks.c **** 				--uxCurrentNumberOfTasks;
 999:../src/RTOS/tasks.c **** 				prvDeleteTCB( pxTCB );
1000:../src/RTOS/tasks.c **** 			}
1001:../src/RTOS/tasks.c **** 
1002:../src/RTOS/tasks.c **** 			/* Increment the uxTaskNumber also so kernel aware debuggers can
1003:../src/RTOS/tasks.c **** 			detect that the task lists need re-generating. */
1004:../src/RTOS/tasks.c **** 			uxTaskNumber++;
1005:../src/RTOS/tasks.c **** 
1006:../src/RTOS/tasks.c **** 			traceTASK_DELETE( pxTCB );
1007:../src/RTOS/tasks.c **** 		}
1008:../src/RTOS/tasks.c **** 		taskEXIT_CRITICAL();
1009:../src/RTOS/tasks.c **** 
1010:../src/RTOS/tasks.c **** 		/* Force a reschedule if it is the currently running task that has just
1011:../src/RTOS/tasks.c **** 		been deleted. */
1012:../src/RTOS/tasks.c **** 		if( xSchedulerRunning != pdFALSE )
1013:../src/RTOS/tasks.c **** 		{
1014:../src/RTOS/tasks.c **** 			if( pxTCB == pxCurrentTCB )
1015:../src/RTOS/tasks.c **** 			{
1016:../src/RTOS/tasks.c **** 				configASSERT( uxSchedulerSuspended == 0 );
1017:../src/RTOS/tasks.c **** 
1018:../src/RTOS/tasks.c **** 				/* The pre-delete hook is primarily for the Windows simulator,
1019:../src/RTOS/tasks.c **** 				in which Windows specific clean up operations are performed,
1020:../src/RTOS/tasks.c **** 				after which it is not possible to yield away from this task -
1021:../src/RTOS/tasks.c **** 				hence xYieldPending is used to latch that a context switch is
1022:../src/RTOS/tasks.c **** 				required. */
1023:../src/RTOS/tasks.c **** 				portPRE_TASK_DELETE_HOOK( pxTCB, &xYieldPending );
1024:../src/RTOS/tasks.c **** 				portYIELD_WITHIN_API();
1025:../src/RTOS/tasks.c **** 			}
1026:../src/RTOS/tasks.c **** 			else
1027:../src/RTOS/tasks.c **** 			{
1028:../src/RTOS/tasks.c **** 				/* Reset the next expected unblock time in case it referred to
1029:../src/RTOS/tasks.c **** 				the task that has just been deleted. */
1030:../src/RTOS/tasks.c **** 				taskENTER_CRITICAL();
1031:../src/RTOS/tasks.c **** 				{
1032:../src/RTOS/tasks.c **** 					prvResetNextTaskUnblockTime();
1033:../src/RTOS/tasks.c **** 				}
1034:../src/RTOS/tasks.c **** 				taskEXIT_CRITICAL();
1035:../src/RTOS/tasks.c **** 			}
1036:../src/RTOS/tasks.c **** 		}
1037:../src/RTOS/tasks.c **** 	}
1038:../src/RTOS/tasks.c **** 
1039:../src/RTOS/tasks.c **** #endif /* INCLUDE_vTaskDelete */
1040:../src/RTOS/tasks.c **** /*-----------------------------------------------------------*/
1041:../src/RTOS/tasks.c **** 
1042:../src/RTOS/tasks.c **** #if ( INCLUDE_vTaskDelayUntil == 1 )
1043:../src/RTOS/tasks.c **** 
1044:../src/RTOS/tasks.c **** 	void vTaskDelayUntil( TickType_t * const pxPreviousWakeTime, const TickType_t xTimeIncrement )
1045:../src/RTOS/tasks.c **** 	{
 551              		.loc 1 1045 0
 552              		.cfi_startproc
 553              		@ args = 0, pretend = 0, frame = 24
 554              		@ frame_needed = 1, uses_anonymous_args = 0
 555 0000 80B5     		push	{r7, lr}
 556              		.cfi_def_cfa_offset 8
 557              		.cfi_offset 7, -8
 558              		.cfi_offset 14, -4
 559 0002 86B0     		sub	sp, sp, #24
 560              		.cfi_def_cfa_offset 32
 561 0004 00AF     		add	r7, sp, #0
 562              		.cfi_def_cfa_register 7
 563 0006 7860     		str	r0, [r7, #4]
 564 0008 3960     		str	r1, [r7]
1046:../src/RTOS/tasks.c **** 	TickType_t xTimeToWake;
1047:../src/RTOS/tasks.c **** 	BaseType_t xAlreadyYielded, xShouldDelay = pdFALSE;
 565              		.loc 1 1047 0
 566 000a 0023     		movs	r3, #0
 567 000c 7B61     		str	r3, [r7, #20]
1048:../src/RTOS/tasks.c **** 
1049:../src/RTOS/tasks.c **** 		configASSERT( pxPreviousWakeTime );
 568              		.loc 1 1049 0
 569 000e 7B68     		ldr	r3, [r7, #4]
 570 0010 002B     		cmp	r3, #0
 571 0012 00D1     		bne	.L26
 572              	.L27:
 573              		.loc 1 1049 0 is_stmt 0 discriminator 1
 574 0014 FEE7     		b	.L27
 575              	.L26:
1050:../src/RTOS/tasks.c **** 		configASSERT( ( xTimeIncrement > 0U ) );
 576              		.loc 1 1050 0 is_stmt 1
 577 0016 3B68     		ldr	r3, [r7]
 578 0018 002B     		cmp	r3, #0
 579 001a 00D1     		bne	.L28
 580              	.L29:
 581              		.loc 1 1050 0 is_stmt 0 discriminator 2
 582 001c FEE7     		b	.L29
 583              	.L28:
1051:../src/RTOS/tasks.c **** 		configASSERT( uxSchedulerSuspended == 0 );
 584              		.loc 1 1051 0 is_stmt 1
 585 001e 244B     		ldr	r3, .L37
 586 0020 1B68     		ldr	r3, [r3]
 587 0022 002B     		cmp	r3, #0
 588 0024 00D0     		beq	.L30
 589              	.L31:
 590              		.loc 1 1051 0 is_stmt 0 discriminator 3
 591 0026 FEE7     		b	.L31
 592              	.L30:
1052:../src/RTOS/tasks.c **** 
1053:../src/RTOS/tasks.c **** 		vTaskSuspendAll();
 593              		.loc 1 1053 0 is_stmt 1
 594 0028 FFF7FEFF 		bl	vTaskSuspendAll
 595              	.LBB19:
1054:../src/RTOS/tasks.c **** 		{
1055:../src/RTOS/tasks.c **** 			/* Minor optimisation.  The tick count cannot change in this
1056:../src/RTOS/tasks.c **** 			block. */
1057:../src/RTOS/tasks.c **** 			const TickType_t xConstTickCount = xTickCount;
 596              		.loc 1 1057 0
 597 002c 214B     		ldr	r3, .L37+4
 598 002e 1B68     		ldr	r3, [r3]
 599 0030 3B61     		str	r3, [r7, #16]
1058:../src/RTOS/tasks.c **** 
1059:../src/RTOS/tasks.c **** 			/* Generate the tick time at which the task wants to wake. */
1060:../src/RTOS/tasks.c **** 			xTimeToWake = *pxPreviousWakeTime + xTimeIncrement;
 600              		.loc 1 1060 0
 601 0032 7B68     		ldr	r3, [r7, #4]
 602 0034 1A68     		ldr	r2, [r3]
 603 0036 3B68     		ldr	r3, [r7]
 604 0038 1344     		add	r3, r3, r2
 605 003a FB60     		str	r3, [r7, #12]
1061:../src/RTOS/tasks.c **** 
1062:../src/RTOS/tasks.c **** 			if( xConstTickCount < *pxPreviousWakeTime )
 606              		.loc 1 1062 0
 607 003c 7B68     		ldr	r3, [r7, #4]
 608 003e 1A68     		ldr	r2, [r3]
 609 0040 3B69     		ldr	r3, [r7, #16]
 610 0042 9A42     		cmp	r2, r3
 611 0044 0BD9     		bls	.L32
1063:../src/RTOS/tasks.c **** 			{
1064:../src/RTOS/tasks.c **** 				/* The tick count has overflowed since this function was
1065:../src/RTOS/tasks.c **** 				lasted called.  In this case the only time we should ever
1066:../src/RTOS/tasks.c **** 				actually delay is if the wake time has also	overflowed,
1067:../src/RTOS/tasks.c **** 				and the wake time is greater than the tick time.  When this
1068:../src/RTOS/tasks.c **** 				is the case it is as if neither time had overflowed. */
1069:../src/RTOS/tasks.c **** 				if( ( xTimeToWake < *pxPreviousWakeTime ) && ( xTimeToWake > xConstTickCount ) )
 612              		.loc 1 1069 0
 613 0046 7B68     		ldr	r3, [r7, #4]
 614 0048 1A68     		ldr	r2, [r3]
 615 004a FB68     		ldr	r3, [r7, #12]
 616 004c 9A42     		cmp	r2, r3
 617 004e 11D9     		bls	.L33
 618              		.loc 1 1069 0 is_stmt 0 discriminator 1
 619 0050 FA68     		ldr	r2, [r7, #12]
 620 0052 3B69     		ldr	r3, [r7, #16]
 621 0054 9A42     		cmp	r2, r3
 622 0056 0DD9     		bls	.L33
1070:../src/RTOS/tasks.c **** 				{
1071:../src/RTOS/tasks.c **** 					xShouldDelay = pdTRUE;
 623              		.loc 1 1071 0 is_stmt 1
 624 0058 0123     		movs	r3, #1
 625 005a 7B61     		str	r3, [r7, #20]
 626 005c 0AE0     		b	.L33
 627              	.L32:
1072:../src/RTOS/tasks.c **** 				}
1073:../src/RTOS/tasks.c **** 				else
1074:../src/RTOS/tasks.c **** 				{
1075:../src/RTOS/tasks.c **** 					mtCOVERAGE_TEST_MARKER();
1076:../src/RTOS/tasks.c **** 				}
1077:../src/RTOS/tasks.c **** 			}
1078:../src/RTOS/tasks.c **** 			else
1079:../src/RTOS/tasks.c **** 			{
1080:../src/RTOS/tasks.c **** 				/* The tick time has not overflowed.  In this case we will
1081:../src/RTOS/tasks.c **** 				delay if either the wake time has overflowed, and/or the
1082:../src/RTOS/tasks.c **** 				tick time is less than the wake time. */
1083:../src/RTOS/tasks.c **** 				if( ( xTimeToWake < *pxPreviousWakeTime ) || ( xTimeToWake > xConstTickCount ) )
 628              		.loc 1 1083 0
 629 005e 7B68     		ldr	r3, [r7, #4]
 630 0060 1A68     		ldr	r2, [r3]
 631 0062 FB68     		ldr	r3, [r7, #12]
 632 0064 9A42     		cmp	r2, r3
 633 0066 03D8     		bhi	.L34
 634              		.loc 1 1083 0 is_stmt 0 discriminator 1
 635 0068 FA68     		ldr	r2, [r7, #12]
 636 006a 3B69     		ldr	r3, [r7, #16]
 637 006c 9A42     		cmp	r2, r3
 638 006e 01D9     		bls	.L33
 639              	.L34:
1084:../src/RTOS/tasks.c **** 				{
1085:../src/RTOS/tasks.c **** 					xShouldDelay = pdTRUE;
 640              		.loc 1 1085 0 is_stmt 1
 641 0070 0123     		movs	r3, #1
 642 0072 7B61     		str	r3, [r7, #20]
 643              	.L33:
1086:../src/RTOS/tasks.c **** 				}
1087:../src/RTOS/tasks.c **** 				else
1088:../src/RTOS/tasks.c **** 				{
1089:../src/RTOS/tasks.c **** 					mtCOVERAGE_TEST_MARKER();
1090:../src/RTOS/tasks.c **** 				}
1091:../src/RTOS/tasks.c **** 			}
1092:../src/RTOS/tasks.c **** 
1093:../src/RTOS/tasks.c **** 			/* Update the wake time ready for the next call. */
1094:../src/RTOS/tasks.c **** 			*pxPreviousWakeTime = xTimeToWake;
 644              		.loc 1 1094 0
 645 0074 7B68     		ldr	r3, [r7, #4]
 646 0076 FA68     		ldr	r2, [r7, #12]
 647 0078 1A60     		str	r2, [r3]
1095:../src/RTOS/tasks.c **** 
1096:../src/RTOS/tasks.c **** 			if( xShouldDelay != pdFALSE )
 648              		.loc 1 1096 0
 649 007a 7B69     		ldr	r3, [r7, #20]
 650 007c 002B     		cmp	r3, #0
 651 007e 06D0     		beq	.L35
1097:../src/RTOS/tasks.c **** 			{
1098:../src/RTOS/tasks.c **** 				traceTASK_DELAY_UNTIL( xTimeToWake );
1099:../src/RTOS/tasks.c **** 
1100:../src/RTOS/tasks.c **** 				/* prvAddCurrentTaskToDelayedList() needs the block time, not
1101:../src/RTOS/tasks.c **** 				the time to wake, so subtract the current tick count. */
1102:../src/RTOS/tasks.c **** 				prvAddCurrentTaskToDelayedList( xTimeToWake - xConstTickCount, pdFALSE );
 652              		.loc 1 1102 0
 653 0080 FA68     		ldr	r2, [r7, #12]
 654 0082 3B69     		ldr	r3, [r7, #16]
 655 0084 D31A     		subs	r3, r2, r3
 656 0086 1846     		mov	r0, r3
 657 0088 0021     		movs	r1, #0
 658 008a FFF7FEFF 		bl	prvAddCurrentTaskToDelayedList
 659              	.L35:
 660              	.LBE19:
1103:../src/RTOS/tasks.c **** 			}
1104:../src/RTOS/tasks.c **** 			else
1105:../src/RTOS/tasks.c **** 			{
1106:../src/RTOS/tasks.c **** 				mtCOVERAGE_TEST_MARKER();
1107:../src/RTOS/tasks.c **** 			}
1108:../src/RTOS/tasks.c **** 		}
1109:../src/RTOS/tasks.c **** 		xAlreadyYielded = xTaskResumeAll();
 661              		.loc 1 1109 0
 662 008e FFF7FEFF 		bl	xTaskResumeAll
 663 0092 B860     		str	r0, [r7, #8]
1110:../src/RTOS/tasks.c **** 
1111:../src/RTOS/tasks.c **** 		/* Force a reschedule if xTaskResumeAll has not already done so, we may
1112:../src/RTOS/tasks.c **** 		have put ourselves to sleep. */
1113:../src/RTOS/tasks.c **** 		if( xAlreadyYielded == pdFALSE )
 664              		.loc 1 1113 0
 665 0094 BB68     		ldr	r3, [r7, #8]
 666 0096 002B     		cmp	r3, #0
 667 0098 07D1     		bne	.L25
1114:../src/RTOS/tasks.c **** 		{
1115:../src/RTOS/tasks.c **** 			portYIELD_WITHIN_API();
 668              		.loc 1 1115 0
 669 009a 074B     		ldr	r3, .L37+8
 670 009c 4FF08052 		mov	r2, #268435456
 671 00a0 1A60     		str	r2, [r3]
 672              	@ 1115 "../src/RTOS/tasks.c" 1
 673 00a2 BFF34F8F 		dsb
 674              	@ 0 "" 2
 675              	@ 1115 "../src/RTOS/tasks.c" 1
 676 00a6 BFF36F8F 		isb
 677              	@ 0 "" 2
 678              		.thumb
 679              	.L25:
1116:../src/RTOS/tasks.c **** 		}
1117:../src/RTOS/tasks.c **** 		else
1118:../src/RTOS/tasks.c **** 		{
1119:../src/RTOS/tasks.c **** 			mtCOVERAGE_TEST_MARKER();
1120:../src/RTOS/tasks.c **** 		}
1121:../src/RTOS/tasks.c **** 	}
 680              		.loc 1 1121 0
 681 00aa 1837     		adds	r7, r7, #24
 682              		.cfi_def_cfa_offset 8
 683 00ac BD46     		mov	sp, r7
 684              		.cfi_def_cfa_register 13
 685              		@ sp needed
 686 00ae 80BD     		pop	{r7, pc}
 687              	.L38:
 688              		.align	2
 689              	.L37:
 690 00b0 00000000 		.word	uxSchedulerSuspended
 691 00b4 00000000 		.word	xTickCount
 692 00b8 04ED00E0 		.word	-536810236
 693              		.cfi_endproc
 694              	.LFE7:
 696              		.section	.text.vTaskDelay,"ax",%progbits
 697              		.align	2
 698              		.global	vTaskDelay
 699              		.thumb
 700              		.thumb_func
 702              	vTaskDelay:
 703              	.LFB8:
1122:../src/RTOS/tasks.c **** 
1123:../src/RTOS/tasks.c **** #endif /* INCLUDE_vTaskDelayUntil */
1124:../src/RTOS/tasks.c **** /*-----------------------------------------------------------*/
1125:../src/RTOS/tasks.c **** 
1126:../src/RTOS/tasks.c **** #if ( INCLUDE_vTaskDelay == 1 )
1127:../src/RTOS/tasks.c **** 
1128:../src/RTOS/tasks.c **** 	void vTaskDelay( const TickType_t xTicksToDelay )
1129:../src/RTOS/tasks.c **** 	{
 704              		.loc 1 1129 0
 705              		.cfi_startproc
 706              		@ args = 0, pretend = 0, frame = 16
 707              		@ frame_needed = 1, uses_anonymous_args = 0
 708 0000 80B5     		push	{r7, lr}
 709              		.cfi_def_cfa_offset 8
 710              		.cfi_offset 7, -8
 711              		.cfi_offset 14, -4
 712 0002 84B0     		sub	sp, sp, #16
 713              		.cfi_def_cfa_offset 24
 714 0004 00AF     		add	r7, sp, #0
 715              		.cfi_def_cfa_register 7
 716 0006 7860     		str	r0, [r7, #4]
1130:../src/RTOS/tasks.c **** 	BaseType_t xAlreadyYielded = pdFALSE;
 717              		.loc 1 1130 0
 718 0008 0023     		movs	r3, #0
 719 000a FB60     		str	r3, [r7, #12]
1131:../src/RTOS/tasks.c **** 
1132:../src/RTOS/tasks.c **** 		/* A delay time of zero just forces a reschedule. */
1133:../src/RTOS/tasks.c **** 		if( xTicksToDelay > ( TickType_t ) 0U )
 720              		.loc 1 1133 0
 721 000c 7B68     		ldr	r3, [r7, #4]
 722 000e 002B     		cmp	r3, #0
 723 0010 0DD0     		beq	.L40
1134:../src/RTOS/tasks.c **** 		{
1135:../src/RTOS/tasks.c **** 			configASSERT( uxSchedulerSuspended == 0 );
 724              		.loc 1 1135 0
 725 0012 0E4B     		ldr	r3, .L44
 726 0014 1B68     		ldr	r3, [r3]
 727 0016 002B     		cmp	r3, #0
 728 0018 00D0     		beq	.L41
 729              	.L42:
 730              		.loc 1 1135 0 is_stmt 0 discriminator 1
 731 001a FEE7     		b	.L42
 732              	.L41:
1136:../src/RTOS/tasks.c **** 			vTaskSuspendAll();
 733              		.loc 1 1136 0 is_stmt 1
 734 001c FFF7FEFF 		bl	vTaskSuspendAll
1137:../src/RTOS/tasks.c **** 			{
1138:../src/RTOS/tasks.c **** 				traceTASK_DELAY();
1139:../src/RTOS/tasks.c **** 
1140:../src/RTOS/tasks.c **** 				/* A task that is removed from the event list while the
1141:../src/RTOS/tasks.c **** 				scheduler is suspended will not get placed in the ready
1142:../src/RTOS/tasks.c **** 				list or removed from the blocked list until the scheduler
1143:../src/RTOS/tasks.c **** 				is resumed.
1144:../src/RTOS/tasks.c **** 
1145:../src/RTOS/tasks.c **** 				This task cannot be in an event list as it is the currently
1146:../src/RTOS/tasks.c **** 				executing task. */
1147:../src/RTOS/tasks.c **** 				prvAddCurrentTaskToDelayedList( xTicksToDelay, pdFALSE );
 735              		.loc 1 1147 0
 736 0020 7868     		ldr	r0, [r7, #4]
 737 0022 0021     		movs	r1, #0
 738 0024 FFF7FEFF 		bl	prvAddCurrentTaskToDelayedList
1148:../src/RTOS/tasks.c **** 			}
1149:../src/RTOS/tasks.c **** 			xAlreadyYielded = xTaskResumeAll();
 739              		.loc 1 1149 0
 740 0028 FFF7FEFF 		bl	xTaskResumeAll
 741 002c F860     		str	r0, [r7, #12]
 742              	.L40:
1150:../src/RTOS/tasks.c **** 		}
1151:../src/RTOS/tasks.c **** 		else
1152:../src/RTOS/tasks.c **** 		{
1153:../src/RTOS/tasks.c **** 			mtCOVERAGE_TEST_MARKER();
1154:../src/RTOS/tasks.c **** 		}
1155:../src/RTOS/tasks.c **** 
1156:../src/RTOS/tasks.c **** 		/* Force a reschedule if xTaskResumeAll has not already done so, we may
1157:../src/RTOS/tasks.c **** 		have put ourselves to sleep. */
1158:../src/RTOS/tasks.c **** 		if( xAlreadyYielded == pdFALSE )
 743              		.loc 1 1158 0
 744 002e FB68     		ldr	r3, [r7, #12]
 745 0030 002B     		cmp	r3, #0
 746 0032 07D1     		bne	.L39
1159:../src/RTOS/tasks.c **** 		{
1160:../src/RTOS/tasks.c **** 			portYIELD_WITHIN_API();
 747              		.loc 1 1160 0
 748 0034 064B     		ldr	r3, .L44+4
 749 0036 4FF08052 		mov	r2, #268435456
 750 003a 1A60     		str	r2, [r3]
 751              	@ 1160 "../src/RTOS/tasks.c" 1
 752 003c BFF34F8F 		dsb
 753              	@ 0 "" 2
 754              	@ 1160 "../src/RTOS/tasks.c" 1
 755 0040 BFF36F8F 		isb
 756              	@ 0 "" 2
 757              		.thumb
 758              	.L39:
1161:../src/RTOS/tasks.c **** 		}
1162:../src/RTOS/tasks.c **** 		else
1163:../src/RTOS/tasks.c **** 		{
1164:../src/RTOS/tasks.c **** 			mtCOVERAGE_TEST_MARKER();
1165:../src/RTOS/tasks.c **** 		}
1166:../src/RTOS/tasks.c **** 	}
 759              		.loc 1 1166 0
 760 0044 1037     		adds	r7, r7, #16
 761              		.cfi_def_cfa_offset 8
 762 0046 BD46     		mov	sp, r7
 763              		.cfi_def_cfa_register 13
 764              		@ sp needed
 765 0048 80BD     		pop	{r7, pc}
 766              	.L45:
 767 004a 00BF     		.align	2
 768              	.L44:
 769 004c 00000000 		.word	uxSchedulerSuspended
 770 0050 04ED00E0 		.word	-536810236
 771              		.cfi_endproc
 772              	.LFE8:
 774              		.section	.text.vTaskSuspend,"ax",%progbits
 775              		.align	2
 776              		.global	vTaskSuspend
 777              		.thumb
 778              		.thumb_func
 780              	vTaskSuspend:
 781              	.LFB9:
1167:../src/RTOS/tasks.c **** 
1168:../src/RTOS/tasks.c **** #endif /* INCLUDE_vTaskDelay */
1169:../src/RTOS/tasks.c **** /*-----------------------------------------------------------*/
1170:../src/RTOS/tasks.c **** 
1171:../src/RTOS/tasks.c **** #if( ( INCLUDE_eTaskGetState == 1 ) || ( configUSE_TRACE_FACILITY == 1 ) )
1172:../src/RTOS/tasks.c **** 
1173:../src/RTOS/tasks.c **** 	eTaskState eTaskGetState( TaskHandle_t xTask )
1174:../src/RTOS/tasks.c **** 	{
1175:../src/RTOS/tasks.c **** 	eTaskState eReturn;
1176:../src/RTOS/tasks.c **** 	List_t *pxStateList;
1177:../src/RTOS/tasks.c **** 	const TCB_t * const pxTCB = ( TCB_t * ) xTask;
1178:../src/RTOS/tasks.c **** 
1179:../src/RTOS/tasks.c **** 		configASSERT( pxTCB );
1180:../src/RTOS/tasks.c **** 
1181:../src/RTOS/tasks.c **** 		if( pxTCB == pxCurrentTCB )
1182:../src/RTOS/tasks.c **** 		{
1183:../src/RTOS/tasks.c **** 			/* The task calling this function is querying its own state. */
1184:../src/RTOS/tasks.c **** 			eReturn = eRunning;
1185:../src/RTOS/tasks.c **** 		}
1186:../src/RTOS/tasks.c **** 		else
1187:../src/RTOS/tasks.c **** 		{
1188:../src/RTOS/tasks.c **** 			taskENTER_CRITICAL();
1189:../src/RTOS/tasks.c **** 			{
1190:../src/RTOS/tasks.c **** 				pxStateList = ( List_t * ) listLIST_ITEM_CONTAINER( &( pxTCB->xStateListItem ) );
1191:../src/RTOS/tasks.c **** 			}
1192:../src/RTOS/tasks.c **** 			taskEXIT_CRITICAL();
1193:../src/RTOS/tasks.c **** 
1194:../src/RTOS/tasks.c **** 			if( ( pxStateList == pxDelayedTaskList ) || ( pxStateList == pxOverflowDelayedTaskList ) )
1195:../src/RTOS/tasks.c **** 			{
1196:../src/RTOS/tasks.c **** 				/* The task being queried is referenced from one of the Blocked
1197:../src/RTOS/tasks.c **** 				lists. */
1198:../src/RTOS/tasks.c **** 				eReturn = eBlocked;
1199:../src/RTOS/tasks.c **** 			}
1200:../src/RTOS/tasks.c **** 
1201:../src/RTOS/tasks.c **** 			#if ( INCLUDE_vTaskSuspend == 1 )
1202:../src/RTOS/tasks.c **** 				else if( pxStateList == &xSuspendedTaskList )
1203:../src/RTOS/tasks.c **** 				{
1204:../src/RTOS/tasks.c **** 					/* The task being queried is referenced from the suspended
1205:../src/RTOS/tasks.c **** 					list.  Is it genuinely suspended or is it block
1206:../src/RTOS/tasks.c **** 					indefinitely? */
1207:../src/RTOS/tasks.c **** 					if( listLIST_ITEM_CONTAINER( &( pxTCB->xEventListItem ) ) == NULL )
1208:../src/RTOS/tasks.c **** 					{
1209:../src/RTOS/tasks.c **** 						eReturn = eSuspended;
1210:../src/RTOS/tasks.c **** 					}
1211:../src/RTOS/tasks.c **** 					else
1212:../src/RTOS/tasks.c **** 					{
1213:../src/RTOS/tasks.c **** 						eReturn = eBlocked;
1214:../src/RTOS/tasks.c **** 					}
1215:../src/RTOS/tasks.c **** 				}
1216:../src/RTOS/tasks.c **** 			#endif
1217:../src/RTOS/tasks.c **** 
1218:../src/RTOS/tasks.c **** 			#if ( INCLUDE_vTaskDelete == 1 )
1219:../src/RTOS/tasks.c **** 				else if( ( pxStateList == &xTasksWaitingTermination ) || ( pxStateList == NULL ) )
1220:../src/RTOS/tasks.c **** 				{
1221:../src/RTOS/tasks.c **** 					/* The task being queried is referenced from the deleted
1222:../src/RTOS/tasks.c **** 					tasks list, or it is not referenced from any lists at
1223:../src/RTOS/tasks.c **** 					all. */
1224:../src/RTOS/tasks.c **** 					eReturn = eDeleted;
1225:../src/RTOS/tasks.c **** 				}
1226:../src/RTOS/tasks.c **** 			#endif
1227:../src/RTOS/tasks.c **** 
1228:../src/RTOS/tasks.c **** 			else /*lint !e525 Negative indentation is intended to make use of pre-processor clearer. */
1229:../src/RTOS/tasks.c **** 			{
1230:../src/RTOS/tasks.c **** 				/* If the task is not in any other state, it must be in the
1231:../src/RTOS/tasks.c **** 				Ready (including pending ready) state. */
1232:../src/RTOS/tasks.c **** 				eReturn = eReady;
1233:../src/RTOS/tasks.c **** 			}
1234:../src/RTOS/tasks.c **** 		}
1235:../src/RTOS/tasks.c **** 
1236:../src/RTOS/tasks.c **** 		return eReturn;
1237:../src/RTOS/tasks.c **** 	} /*lint !e818 xTask cannot be a pointer to const because it is a typedef. */
1238:../src/RTOS/tasks.c **** 
1239:../src/RTOS/tasks.c **** #endif /* INCLUDE_eTaskGetState */
1240:../src/RTOS/tasks.c **** /*-----------------------------------------------------------*/
1241:../src/RTOS/tasks.c **** 
1242:../src/RTOS/tasks.c **** #if ( INCLUDE_uxTaskPriorityGet == 1 )
1243:../src/RTOS/tasks.c **** 
1244:../src/RTOS/tasks.c **** 	UBaseType_t uxTaskPriorityGet( TaskHandle_t xTask )
1245:../src/RTOS/tasks.c **** 	{
1246:../src/RTOS/tasks.c **** 	TCB_t *pxTCB;
1247:../src/RTOS/tasks.c **** 	UBaseType_t uxReturn;
1248:../src/RTOS/tasks.c **** 
1249:../src/RTOS/tasks.c **** 		taskENTER_CRITICAL();
1250:../src/RTOS/tasks.c **** 		{
1251:../src/RTOS/tasks.c **** 			/* If null is passed in here then it is the priority of the that
1252:../src/RTOS/tasks.c **** 			called uxTaskPriorityGet() that is being queried. */
1253:../src/RTOS/tasks.c **** 			pxTCB = prvGetTCBFromHandle( xTask );
1254:../src/RTOS/tasks.c **** 			uxReturn = pxTCB->uxPriority;
1255:../src/RTOS/tasks.c **** 		}
1256:../src/RTOS/tasks.c **** 		taskEXIT_CRITICAL();
1257:../src/RTOS/tasks.c **** 
1258:../src/RTOS/tasks.c **** 		return uxReturn;
1259:../src/RTOS/tasks.c **** 	}
1260:../src/RTOS/tasks.c **** 
1261:../src/RTOS/tasks.c **** #endif /* INCLUDE_uxTaskPriorityGet */
1262:../src/RTOS/tasks.c **** /*-----------------------------------------------------------*/
1263:../src/RTOS/tasks.c **** 
1264:../src/RTOS/tasks.c **** #if ( INCLUDE_uxTaskPriorityGet == 1 )
1265:../src/RTOS/tasks.c **** 
1266:../src/RTOS/tasks.c **** 	UBaseType_t uxTaskPriorityGetFromISR( TaskHandle_t xTask )
1267:../src/RTOS/tasks.c **** 	{
1268:../src/RTOS/tasks.c **** 	TCB_t *pxTCB;
1269:../src/RTOS/tasks.c **** 	UBaseType_t uxReturn, uxSavedInterruptState;
1270:../src/RTOS/tasks.c **** 
1271:../src/RTOS/tasks.c **** 		/* RTOS ports that support interrupt nesting have the concept of a
1272:../src/RTOS/tasks.c **** 		maximum	system call (or maximum API call) interrupt priority.
1273:../src/RTOS/tasks.c **** 		Interrupts that are	above the maximum system call priority are keep
1274:../src/RTOS/tasks.c **** 		permanently enabled, even when the RTOS kernel is in a critical section,
1275:../src/RTOS/tasks.c **** 		but cannot make any calls to FreeRTOS API functions.  If configASSERT()
1276:../src/RTOS/tasks.c **** 		is defined in FreeRTOSConfig.h then
1277:../src/RTOS/tasks.c **** 		portASSERT_IF_INTERRUPT_PRIORITY_INVALID() will result in an assertion
1278:../src/RTOS/tasks.c **** 		failure if a FreeRTOS API function is called from an interrupt that has
1279:../src/RTOS/tasks.c **** 		been assigned a priority above the configured maximum system call
1280:../src/RTOS/tasks.c **** 		priority.  Only FreeRTOS functions that end in FromISR can be called
1281:../src/RTOS/tasks.c **** 		from interrupts	that have been assigned a priority at or (logically)
1282:../src/RTOS/tasks.c **** 		below the maximum system call interrupt priority.  FreeRTOS maintains a
1283:../src/RTOS/tasks.c **** 		separate interrupt safe API to ensure interrupt entry is as fast and as
1284:../src/RTOS/tasks.c **** 		simple as possible.  More information (albeit Cortex-M specific) is
1285:../src/RTOS/tasks.c **** 		provided on the following link:
1286:../src/RTOS/tasks.c **** 		http://www.freertos.org/RTOS-Cortex-M3-M4.html */
1287:../src/RTOS/tasks.c **** 		portASSERT_IF_INTERRUPT_PRIORITY_INVALID();
1288:../src/RTOS/tasks.c **** 
1289:../src/RTOS/tasks.c **** 		uxSavedInterruptState = portSET_INTERRUPT_MASK_FROM_ISR();
1290:../src/RTOS/tasks.c **** 		{
1291:../src/RTOS/tasks.c **** 			/* If null is passed in here then it is the priority of the calling
1292:../src/RTOS/tasks.c **** 			task that is being queried. */
1293:../src/RTOS/tasks.c **** 			pxTCB = prvGetTCBFromHandle( xTask );
1294:../src/RTOS/tasks.c **** 			uxReturn = pxTCB->uxPriority;
1295:../src/RTOS/tasks.c **** 		}
1296:../src/RTOS/tasks.c **** 		portCLEAR_INTERRUPT_MASK_FROM_ISR( uxSavedInterruptState );
1297:../src/RTOS/tasks.c **** 
1298:../src/RTOS/tasks.c **** 		return uxReturn;
1299:../src/RTOS/tasks.c **** 	}
1300:../src/RTOS/tasks.c **** 
1301:../src/RTOS/tasks.c **** #endif /* INCLUDE_uxTaskPriorityGet */
1302:../src/RTOS/tasks.c **** /*-----------------------------------------------------------*/
1303:../src/RTOS/tasks.c **** 
1304:../src/RTOS/tasks.c **** #if ( INCLUDE_vTaskPrioritySet == 1 )
1305:../src/RTOS/tasks.c **** 
1306:../src/RTOS/tasks.c **** 	void vTaskPrioritySet( TaskHandle_t xTask, UBaseType_t uxNewPriority )
1307:../src/RTOS/tasks.c **** 	{
1308:../src/RTOS/tasks.c **** 	TCB_t *pxTCB;
1309:../src/RTOS/tasks.c **** 	UBaseType_t uxCurrentBasePriority, uxPriorityUsedOnEntry;
1310:../src/RTOS/tasks.c **** 	BaseType_t xYieldRequired = pdFALSE;
1311:../src/RTOS/tasks.c **** 
1312:../src/RTOS/tasks.c **** 		configASSERT( ( uxNewPriority < configMAX_PRIORITIES ) );
1313:../src/RTOS/tasks.c **** 
1314:../src/RTOS/tasks.c **** 		/* Ensure the new priority is valid. */
1315:../src/RTOS/tasks.c **** 		if( uxNewPriority >= ( UBaseType_t ) configMAX_PRIORITIES )
1316:../src/RTOS/tasks.c **** 		{
1317:../src/RTOS/tasks.c **** 			uxNewPriority = ( UBaseType_t ) configMAX_PRIORITIES - ( UBaseType_t ) 1U;
1318:../src/RTOS/tasks.c **** 		}
1319:../src/RTOS/tasks.c **** 		else
1320:../src/RTOS/tasks.c **** 		{
1321:../src/RTOS/tasks.c **** 			mtCOVERAGE_TEST_MARKER();
1322:../src/RTOS/tasks.c **** 		}
1323:../src/RTOS/tasks.c **** 
1324:../src/RTOS/tasks.c **** 		taskENTER_CRITICAL();
1325:../src/RTOS/tasks.c **** 		{
1326:../src/RTOS/tasks.c **** 			/* If null is passed in here then it is the priority of the calling
1327:../src/RTOS/tasks.c **** 			task that is being changed. */
1328:../src/RTOS/tasks.c **** 			pxTCB = prvGetTCBFromHandle( xTask );
1329:../src/RTOS/tasks.c **** 
1330:../src/RTOS/tasks.c **** 			traceTASK_PRIORITY_SET( pxTCB, uxNewPriority );
1331:../src/RTOS/tasks.c **** 
1332:../src/RTOS/tasks.c **** 			#if ( configUSE_MUTEXES == 1 )
1333:../src/RTOS/tasks.c **** 			{
1334:../src/RTOS/tasks.c **** 				uxCurrentBasePriority = pxTCB->uxBasePriority;
1335:../src/RTOS/tasks.c **** 			}
1336:../src/RTOS/tasks.c **** 			#else
1337:../src/RTOS/tasks.c **** 			{
1338:../src/RTOS/tasks.c **** 				uxCurrentBasePriority = pxTCB->uxPriority;
1339:../src/RTOS/tasks.c **** 			}
1340:../src/RTOS/tasks.c **** 			#endif
1341:../src/RTOS/tasks.c **** 
1342:../src/RTOS/tasks.c **** 			if( uxCurrentBasePriority != uxNewPriority )
1343:../src/RTOS/tasks.c **** 			{
1344:../src/RTOS/tasks.c **** 				/* The priority change may have readied a task of higher
1345:../src/RTOS/tasks.c **** 				priority than the calling task. */
1346:../src/RTOS/tasks.c **** 				if( uxNewPriority > uxCurrentBasePriority )
1347:../src/RTOS/tasks.c **** 				{
1348:../src/RTOS/tasks.c **** 					if( pxTCB != pxCurrentTCB )
1349:../src/RTOS/tasks.c **** 					{
1350:../src/RTOS/tasks.c **** 						/* The priority of a task other than the currently
1351:../src/RTOS/tasks.c **** 						running task is being raised.  Is the priority being
1352:../src/RTOS/tasks.c **** 						raised above that of the running task? */
1353:../src/RTOS/tasks.c **** 						if( uxNewPriority >= pxCurrentTCB->uxPriority )
1354:../src/RTOS/tasks.c **** 						{
1355:../src/RTOS/tasks.c **** 							xYieldRequired = pdTRUE;
1356:../src/RTOS/tasks.c **** 						}
1357:../src/RTOS/tasks.c **** 						else
1358:../src/RTOS/tasks.c **** 						{
1359:../src/RTOS/tasks.c **** 							mtCOVERAGE_TEST_MARKER();
1360:../src/RTOS/tasks.c **** 						}
1361:../src/RTOS/tasks.c **** 					}
1362:../src/RTOS/tasks.c **** 					else
1363:../src/RTOS/tasks.c **** 					{
1364:../src/RTOS/tasks.c **** 						/* The priority of the running task is being raised,
1365:../src/RTOS/tasks.c **** 						but the running task must already be the highest
1366:../src/RTOS/tasks.c **** 						priority task able to run so no yield is required. */
1367:../src/RTOS/tasks.c **** 					}
1368:../src/RTOS/tasks.c **** 				}
1369:../src/RTOS/tasks.c **** 				else if( pxTCB == pxCurrentTCB )
1370:../src/RTOS/tasks.c **** 				{
1371:../src/RTOS/tasks.c **** 					/* Setting the priority of the running task down means
1372:../src/RTOS/tasks.c **** 					there may now be another task of higher priority that
1373:../src/RTOS/tasks.c **** 					is ready to execute. */
1374:../src/RTOS/tasks.c **** 					xYieldRequired = pdTRUE;
1375:../src/RTOS/tasks.c **** 				}
1376:../src/RTOS/tasks.c **** 				else
1377:../src/RTOS/tasks.c **** 				{
1378:../src/RTOS/tasks.c **** 					/* Setting the priority of any other task down does not
1379:../src/RTOS/tasks.c **** 					require a yield as the running task must be above the
1380:../src/RTOS/tasks.c **** 					new priority of the task being modified. */
1381:../src/RTOS/tasks.c **** 				}
1382:../src/RTOS/tasks.c **** 
1383:../src/RTOS/tasks.c **** 				/* Remember the ready list the task might be referenced from
1384:../src/RTOS/tasks.c **** 				before its uxPriority member is changed so the
1385:../src/RTOS/tasks.c **** 				taskRESET_READY_PRIORITY() macro can function correctly. */
1386:../src/RTOS/tasks.c **** 				uxPriorityUsedOnEntry = pxTCB->uxPriority;
1387:../src/RTOS/tasks.c **** 
1388:../src/RTOS/tasks.c **** 				#if ( configUSE_MUTEXES == 1 )
1389:../src/RTOS/tasks.c **** 				{
1390:../src/RTOS/tasks.c **** 					/* Only change the priority being used if the task is not
1391:../src/RTOS/tasks.c **** 					currently using an inherited priority. */
1392:../src/RTOS/tasks.c **** 					if( pxTCB->uxBasePriority == pxTCB->uxPriority )
1393:../src/RTOS/tasks.c **** 					{
1394:../src/RTOS/tasks.c **** 						pxTCB->uxPriority = uxNewPriority;
1395:../src/RTOS/tasks.c **** 					}
1396:../src/RTOS/tasks.c **** 					else
1397:../src/RTOS/tasks.c **** 					{
1398:../src/RTOS/tasks.c **** 						mtCOVERAGE_TEST_MARKER();
1399:../src/RTOS/tasks.c **** 					}
1400:../src/RTOS/tasks.c **** 
1401:../src/RTOS/tasks.c **** 					/* The base priority gets set whatever. */
1402:../src/RTOS/tasks.c **** 					pxTCB->uxBasePriority = uxNewPriority;
1403:../src/RTOS/tasks.c **** 				}
1404:../src/RTOS/tasks.c **** 				#else
1405:../src/RTOS/tasks.c **** 				{
1406:../src/RTOS/tasks.c **** 					pxTCB->uxPriority = uxNewPriority;
1407:../src/RTOS/tasks.c **** 				}
1408:../src/RTOS/tasks.c **** 				#endif
1409:../src/RTOS/tasks.c **** 
1410:../src/RTOS/tasks.c **** 				/* Only reset the event list item value if the value is not
1411:../src/RTOS/tasks.c **** 				being used for anything else. */
1412:../src/RTOS/tasks.c **** 				if( ( listGET_LIST_ITEM_VALUE( &( pxTCB->xEventListItem ) ) & taskEVENT_LIST_ITEM_VALUE_IN_USE 
1413:../src/RTOS/tasks.c **** 				{
1414:../src/RTOS/tasks.c **** 					listSET_LIST_ITEM_VALUE( &( pxTCB->xEventListItem ), ( ( TickType_t ) configMAX_PRIORITIES - (
1415:../src/RTOS/tasks.c **** 				}
1416:../src/RTOS/tasks.c **** 				else
1417:../src/RTOS/tasks.c **** 				{
1418:../src/RTOS/tasks.c **** 					mtCOVERAGE_TEST_MARKER();
1419:../src/RTOS/tasks.c **** 				}
1420:../src/RTOS/tasks.c **** 
1421:../src/RTOS/tasks.c **** 				/* If the task is in the blocked or suspended list we need do
1422:../src/RTOS/tasks.c **** 				nothing more than change it's priority variable. However, if
1423:../src/RTOS/tasks.c **** 				the task is in a ready list it needs to be removed and placed
1424:../src/RTOS/tasks.c **** 				in the list appropriate to its new priority. */
1425:../src/RTOS/tasks.c **** 				if( listIS_CONTAINED_WITHIN( &( pxReadyTasksLists[ uxPriorityUsedOnEntry ] ), &( pxTCB->xStateL
1426:../src/RTOS/tasks.c **** 				{
1427:../src/RTOS/tasks.c **** 					/* The task is currently in its ready list - remove before adding
1428:../src/RTOS/tasks.c **** 					it to it's new ready list.  As we are in a critical section we
1429:../src/RTOS/tasks.c **** 					can do this even if the scheduler is suspended. */
1430:../src/RTOS/tasks.c **** 					if( uxListRemove( &( pxTCB->xStateListItem ) ) == ( UBaseType_t ) 0 )
1431:../src/RTOS/tasks.c **** 					{
1432:../src/RTOS/tasks.c **** 						/* It is known that the task is in its ready list so
1433:../src/RTOS/tasks.c **** 						there is no need to check again and the port level
1434:../src/RTOS/tasks.c **** 						reset macro can be called directly. */
1435:../src/RTOS/tasks.c **** 						portRESET_READY_PRIORITY( uxPriorityUsedOnEntry, uxTopReadyPriority );
1436:../src/RTOS/tasks.c **** 					}
1437:../src/RTOS/tasks.c **** 					else
1438:../src/RTOS/tasks.c **** 					{
1439:../src/RTOS/tasks.c **** 						mtCOVERAGE_TEST_MARKER();
1440:../src/RTOS/tasks.c **** 					}
1441:../src/RTOS/tasks.c **** 					prvAddTaskToReadyList( pxTCB );
1442:../src/RTOS/tasks.c **** 				}
1443:../src/RTOS/tasks.c **** 				else
1444:../src/RTOS/tasks.c **** 				{
1445:../src/RTOS/tasks.c **** 					mtCOVERAGE_TEST_MARKER();
1446:../src/RTOS/tasks.c **** 				}
1447:../src/RTOS/tasks.c **** 
1448:../src/RTOS/tasks.c **** 				if( xYieldRequired != pdFALSE )
1449:../src/RTOS/tasks.c **** 				{
1450:../src/RTOS/tasks.c **** 					taskYIELD_IF_USING_PREEMPTION();
1451:../src/RTOS/tasks.c **** 				}
1452:../src/RTOS/tasks.c **** 				else
1453:../src/RTOS/tasks.c **** 				{
1454:../src/RTOS/tasks.c **** 					mtCOVERAGE_TEST_MARKER();
1455:../src/RTOS/tasks.c **** 				}
1456:../src/RTOS/tasks.c **** 
1457:../src/RTOS/tasks.c **** 				/* Remove compiler warning about unused variables when the port
1458:../src/RTOS/tasks.c **** 				optimised task selection is not being used. */
1459:../src/RTOS/tasks.c **** 				( void ) uxPriorityUsedOnEntry;
1460:../src/RTOS/tasks.c **** 			}
1461:../src/RTOS/tasks.c **** 		}
1462:../src/RTOS/tasks.c **** 		taskEXIT_CRITICAL();
1463:../src/RTOS/tasks.c **** 	}
1464:../src/RTOS/tasks.c **** 
1465:../src/RTOS/tasks.c **** #endif /* INCLUDE_vTaskPrioritySet */
1466:../src/RTOS/tasks.c **** /*-----------------------------------------------------------*/
1467:../src/RTOS/tasks.c **** 
1468:../src/RTOS/tasks.c **** #if ( INCLUDE_vTaskSuspend == 1 )
1469:../src/RTOS/tasks.c **** 
1470:../src/RTOS/tasks.c **** 	void vTaskSuspend( TaskHandle_t xTaskToSuspend )
1471:../src/RTOS/tasks.c **** 	{
 782              		.loc 1 1471 0
 783              		.cfi_startproc
 784              		@ args = 0, pretend = 0, frame = 16
 785              		@ frame_needed = 1, uses_anonymous_args = 0
 786 0000 80B5     		push	{r7, lr}
 787              		.cfi_def_cfa_offset 8
 788              		.cfi_offset 7, -8
 789              		.cfi_offset 14, -4
 790 0002 84B0     		sub	sp, sp, #16
 791              		.cfi_def_cfa_offset 24
 792 0004 00AF     		add	r7, sp, #0
 793              		.cfi_def_cfa_register 7
 794 0006 7860     		str	r0, [r7, #4]
1472:../src/RTOS/tasks.c **** 	TCB_t *pxTCB;
1473:../src/RTOS/tasks.c **** 
1474:../src/RTOS/tasks.c **** 		taskENTER_CRITICAL();
 795              		.loc 1 1474 0
 796 0008 FFF7FEFF 		bl	vPortEnterCritical
1475:../src/RTOS/tasks.c **** 		{
1476:../src/RTOS/tasks.c **** 			/* If null is passed in here then it is the running task that is
1477:../src/RTOS/tasks.c **** 			being suspended. */
1478:../src/RTOS/tasks.c **** 			pxTCB = prvGetTCBFromHandle( xTaskToSuspend );
 797              		.loc 1 1478 0
 798 000c 7B68     		ldr	r3, [r7, #4]
 799 000e 002B     		cmp	r3, #0
 800 0010 02D1     		bne	.L47
 801              		.loc 1 1478 0 is_stmt 0 discriminator 1
 802 0012 254B     		ldr	r3, .L57
 803 0014 1B68     		ldr	r3, [r3]
 804 0016 00E0     		b	.L48
 805              	.L47:
 806              		.loc 1 1478 0 discriminator 2
 807 0018 7B68     		ldr	r3, [r7, #4]
 808              	.L48:
 809              		.loc 1 1478 0 discriminator 4
 810 001a FB60     		str	r3, [r7, #12]
1479:../src/RTOS/tasks.c **** 
1480:../src/RTOS/tasks.c **** 			traceTASK_SUSPEND( pxTCB );
1481:../src/RTOS/tasks.c **** 
1482:../src/RTOS/tasks.c **** 			/* Remove task from the ready/delayed list and place in the
1483:../src/RTOS/tasks.c **** 			suspended list. */
1484:../src/RTOS/tasks.c **** 			if( uxListRemove( &( pxTCB->xStateListItem ) ) == ( UBaseType_t ) 0 )
 811              		.loc 1 1484 0 is_stmt 1 discriminator 4
 812 001c FB68     		ldr	r3, [r7, #12]
 813 001e 0433     		adds	r3, r3, #4
 814 0020 1846     		mov	r0, r3
 815 0022 FFF7FEFF 		bl	uxListRemove
1485:../src/RTOS/tasks.c **** 			{
1486:../src/RTOS/tasks.c **** 				taskRESET_READY_PRIORITY( pxTCB->uxPriority );
1487:../src/RTOS/tasks.c **** 			}
1488:../src/RTOS/tasks.c **** 			else
1489:../src/RTOS/tasks.c **** 			{
1490:../src/RTOS/tasks.c **** 				mtCOVERAGE_TEST_MARKER();
1491:../src/RTOS/tasks.c **** 			}
1492:../src/RTOS/tasks.c **** 
1493:../src/RTOS/tasks.c **** 			/* Is the task waiting on an event also? */
1494:../src/RTOS/tasks.c **** 			if( listLIST_ITEM_CONTAINER( &( pxTCB->xEventListItem ) ) != NULL )
 816              		.loc 1 1494 0 discriminator 4
 817 0026 FB68     		ldr	r3, [r7, #12]
 818 0028 9B6A     		ldr	r3, [r3, #40]
 819 002a 002B     		cmp	r3, #0
 820 002c 04D0     		beq	.L49
1495:../src/RTOS/tasks.c **** 			{
1496:../src/RTOS/tasks.c **** 				( void ) uxListRemove( &( pxTCB->xEventListItem ) );
 821              		.loc 1 1496 0
 822 002e FB68     		ldr	r3, [r7, #12]
 823 0030 1833     		adds	r3, r3, #24
 824 0032 1846     		mov	r0, r3
 825 0034 FFF7FEFF 		bl	uxListRemove
 826              	.L49:
1497:../src/RTOS/tasks.c **** 			}
1498:../src/RTOS/tasks.c **** 			else
1499:../src/RTOS/tasks.c **** 			{
1500:../src/RTOS/tasks.c **** 				mtCOVERAGE_TEST_MARKER();
1501:../src/RTOS/tasks.c **** 			}
1502:../src/RTOS/tasks.c **** 
1503:../src/RTOS/tasks.c **** 			vListInsertEnd( &xSuspendedTaskList, &( pxTCB->xStateListItem ) );
 827              		.loc 1 1503 0
 828 0038 FB68     		ldr	r3, [r7, #12]
 829 003a 0433     		adds	r3, r3, #4
 830 003c 1B48     		ldr	r0, .L57+4
 831 003e 1946     		mov	r1, r3
 832 0040 FFF7FEFF 		bl	vListInsertEnd
1504:../src/RTOS/tasks.c **** 		}
1505:../src/RTOS/tasks.c **** 		taskEXIT_CRITICAL();
 833              		.loc 1 1505 0
 834 0044 FFF7FEFF 		bl	vPortExitCritical
1506:../src/RTOS/tasks.c **** 
1507:../src/RTOS/tasks.c **** 		if( xSchedulerRunning != pdFALSE )
 835              		.loc 1 1507 0
 836 0048 194B     		ldr	r3, .L57+8
 837 004a 1B68     		ldr	r3, [r3]
 838 004c 002B     		cmp	r3, #0
 839 004e 05D0     		beq	.L50
1508:../src/RTOS/tasks.c **** 		{
1509:../src/RTOS/tasks.c **** 			/* Reset the next expected unblock time in case it referred to the
1510:../src/RTOS/tasks.c **** 			task that is now in the Suspended state. */
1511:../src/RTOS/tasks.c **** 			taskENTER_CRITICAL();
 840              		.loc 1 1511 0
 841 0050 FFF7FEFF 		bl	vPortEnterCritical
1512:../src/RTOS/tasks.c **** 			{
1513:../src/RTOS/tasks.c **** 				prvResetNextTaskUnblockTime();
 842              		.loc 1 1513 0
 843 0054 FFF7FEFF 		bl	prvResetNextTaskUnblockTime
1514:../src/RTOS/tasks.c **** 			}
1515:../src/RTOS/tasks.c **** 			taskEXIT_CRITICAL();
 844              		.loc 1 1515 0
 845 0058 FFF7FEFF 		bl	vPortExitCritical
 846              	.L50:
1516:../src/RTOS/tasks.c **** 		}
1517:../src/RTOS/tasks.c **** 		else
1518:../src/RTOS/tasks.c **** 		{
1519:../src/RTOS/tasks.c **** 			mtCOVERAGE_TEST_MARKER();
1520:../src/RTOS/tasks.c **** 		}
1521:../src/RTOS/tasks.c **** 
1522:../src/RTOS/tasks.c **** 		if( pxTCB == pxCurrentTCB )
 847              		.loc 1 1522 0
 848 005c 124B     		ldr	r3, .L57
 849 005e 1B68     		ldr	r3, [r3]
 850 0060 FA68     		ldr	r2, [r7, #12]
 851 0062 9A42     		cmp	r2, r3
 852 0064 1DD1     		bne	.L46
1523:../src/RTOS/tasks.c **** 		{
1524:../src/RTOS/tasks.c **** 			if( xSchedulerRunning != pdFALSE )
 853              		.loc 1 1524 0
 854 0066 124B     		ldr	r3, .L57+8
 855 0068 1B68     		ldr	r3, [r3]
 856 006a 002B     		cmp	r3, #0
 857 006c 0DD0     		beq	.L52
1525:../src/RTOS/tasks.c **** 			{
1526:../src/RTOS/tasks.c **** 				/* The current task has just been suspended. */
1527:../src/RTOS/tasks.c **** 				configASSERT( uxSchedulerSuspended == 0 );
 858              		.loc 1 1527 0
 859 006e 114B     		ldr	r3, .L57+12
 860 0070 1B68     		ldr	r3, [r3]
 861 0072 002B     		cmp	r3, #0
 862 0074 00D0     		beq	.L53
 863              	.L54:
 864              		.loc 1 1527 0 is_stmt 0 discriminator 1
 865 0076 FEE7     		b	.L54
 866              	.L53:
1528:../src/RTOS/tasks.c **** 				portYIELD_WITHIN_API();
 867              		.loc 1 1528 0 is_stmt 1
 868 0078 0F4B     		ldr	r3, .L57+16
 869 007a 4FF08052 		mov	r2, #268435456
 870 007e 1A60     		str	r2, [r3]
 871              	@ 1528 "../src/RTOS/tasks.c" 1
 872 0080 BFF34F8F 		dsb
 873              	@ 0 "" 2
 874              	@ 1528 "../src/RTOS/tasks.c" 1
 875 0084 BFF36F8F 		isb
 876              	@ 0 "" 2
 877              		.thumb
 878 0088 0BE0     		b	.L46
 879              	.L52:
1529:../src/RTOS/tasks.c **** 			}
1530:../src/RTOS/tasks.c **** 			else
1531:../src/RTOS/tasks.c **** 			{
1532:../src/RTOS/tasks.c **** 				/* The scheduler is not running, but the task that was pointed
1533:../src/RTOS/tasks.c **** 				to by pxCurrentTCB has just been suspended and pxCurrentTCB
1534:../src/RTOS/tasks.c **** 				must be adjusted to point to a different task. */
1535:../src/RTOS/tasks.c **** 				if( listCURRENT_LIST_LENGTH( &xSuspendedTaskList ) == uxCurrentNumberOfTasks )
 880              		.loc 1 1535 0
 881 008a 084B     		ldr	r3, .L57+4
 882 008c 1A68     		ldr	r2, [r3]
 883 008e 0B4B     		ldr	r3, .L57+20
 884 0090 1B68     		ldr	r3, [r3]
 885 0092 9A42     		cmp	r2, r3
 886 0094 03D1     		bne	.L56
1536:../src/RTOS/tasks.c **** 				{
1537:../src/RTOS/tasks.c **** 					/* No other tasks are ready, so set pxCurrentTCB back to
1538:../src/RTOS/tasks.c **** 					NULL so when the next task is created pxCurrentTCB will
1539:../src/RTOS/tasks.c **** 					be set to point to it no matter what its relative priority
1540:../src/RTOS/tasks.c **** 					is. */
1541:../src/RTOS/tasks.c **** 					pxCurrentTCB = NULL;
 887              		.loc 1 1541 0
 888 0096 044B     		ldr	r3, .L57
 889 0098 0022     		movs	r2, #0
 890 009a 1A60     		str	r2, [r3]
 891 009c 01E0     		b	.L46
 892              	.L56:
1542:../src/RTOS/tasks.c **** 				}
1543:../src/RTOS/tasks.c **** 				else
1544:../src/RTOS/tasks.c **** 				{
1545:../src/RTOS/tasks.c **** 					vTaskSwitchContext();
 893              		.loc 1 1545 0
 894 009e FFF7FEFF 		bl	vTaskSwitchContext
 895              	.L46:
1546:../src/RTOS/tasks.c **** 				}
1547:../src/RTOS/tasks.c **** 			}
1548:../src/RTOS/tasks.c **** 		}
1549:../src/RTOS/tasks.c **** 		else
1550:../src/RTOS/tasks.c **** 		{
1551:../src/RTOS/tasks.c **** 			mtCOVERAGE_TEST_MARKER();
1552:../src/RTOS/tasks.c **** 		}
1553:../src/RTOS/tasks.c **** 	}
 896              		.loc 1 1553 0
 897 00a2 1037     		adds	r7, r7, #16
 898              		.cfi_def_cfa_offset 8
 899 00a4 BD46     		mov	sp, r7
 900              		.cfi_def_cfa_register 13
 901              		@ sp needed
 902 00a6 80BD     		pop	{r7, pc}
 903              	.L58:
 904              		.align	2
 905              	.L57:
 906 00a8 00000000 		.word	pxCurrentTCB
 907 00ac 00000000 		.word	xSuspendedTaskList
 908 00b0 00000000 		.word	xSchedulerRunning
 909 00b4 00000000 		.word	uxSchedulerSuspended
 910 00b8 04ED00E0 		.word	-536810236
 911 00bc 00000000 		.word	uxCurrentNumberOfTasks
 912              		.cfi_endproc
 913              	.LFE9:
 915              		.section	.text.prvTaskIsTaskSuspended,"ax",%progbits
 916              		.align	2
 917              		.thumb
 918              		.thumb_func
 920              	prvTaskIsTaskSuspended:
 921              	.LFB10:
1554:../src/RTOS/tasks.c **** 
1555:../src/RTOS/tasks.c **** #endif /* INCLUDE_vTaskSuspend */
1556:../src/RTOS/tasks.c **** /*-----------------------------------------------------------*/
1557:../src/RTOS/tasks.c **** 
1558:../src/RTOS/tasks.c **** #if ( INCLUDE_vTaskSuspend == 1 )
1559:../src/RTOS/tasks.c **** 
1560:../src/RTOS/tasks.c **** 	static BaseType_t prvTaskIsTaskSuspended( const TaskHandle_t xTask )
1561:../src/RTOS/tasks.c **** 	{
 922              		.loc 1 1561 0
 923              		.cfi_startproc
 924              		@ args = 0, pretend = 0, frame = 16
 925              		@ frame_needed = 1, uses_anonymous_args = 0
 926              		@ link register save eliminated.
 927 0000 80B4     		push	{r7}
 928              		.cfi_def_cfa_offset 4
 929              		.cfi_offset 7, -4
 930 0002 85B0     		sub	sp, sp, #20
 931              		.cfi_def_cfa_offset 24
 932 0004 00AF     		add	r7, sp, #0
 933              		.cfi_def_cfa_register 7
 934 0006 7860     		str	r0, [r7, #4]
1562:../src/RTOS/tasks.c **** 	BaseType_t xReturn = pdFALSE;
 935              		.loc 1 1562 0
 936 0008 0023     		movs	r3, #0
 937 000a FB60     		str	r3, [r7, #12]
1563:../src/RTOS/tasks.c **** 	const TCB_t * const pxTCB = ( TCB_t * ) xTask;
 938              		.loc 1 1563 0
 939 000c 7B68     		ldr	r3, [r7, #4]
 940 000e BB60     		str	r3, [r7, #8]
1564:../src/RTOS/tasks.c **** 
1565:../src/RTOS/tasks.c **** 		/* Accesses xPendingReadyList so must be called from a critical
1566:../src/RTOS/tasks.c **** 		section. */
1567:../src/RTOS/tasks.c **** 
1568:../src/RTOS/tasks.c **** 		/* It does not make sense to check if the calling task is suspended. */
1569:../src/RTOS/tasks.c **** 		configASSERT( xTask );
 941              		.loc 1 1569 0
 942 0010 7B68     		ldr	r3, [r7, #4]
 943 0012 002B     		cmp	r3, #0
 944 0014 00D1     		bne	.L60
 945              	.L61:
 946              		.loc 1 1569 0 is_stmt 0 discriminator 1
 947 0016 FEE7     		b	.L61
 948              	.L60:
1570:../src/RTOS/tasks.c **** 
1571:../src/RTOS/tasks.c **** 		/* Is the task being resumed actually in the suspended list? */
1572:../src/RTOS/tasks.c **** 		if( listIS_CONTAINED_WITHIN( &xSuspendedTaskList, &( pxTCB->xStateListItem ) ) != pdFALSE )
 949              		.loc 1 1572 0 is_stmt 1
 950 0018 BB68     		ldr	r3, [r7, #8]
 951 001a 5B69     		ldr	r3, [r3, #20]
 952 001c 0F4A     		ldr	r2, .L68
 953 001e 9342     		cmp	r3, r2
 954 0020 01D1     		bne	.L62
 955              		.loc 1 1572 0 is_stmt 0 discriminator 1
 956 0022 0123     		movs	r3, #1
 957 0024 00E0     		b	.L63
 958              	.L62:
 959              		.loc 1 1572 0 discriminator 2
 960 0026 0023     		movs	r3, #0
 961              	.L63:
 962              		.loc 1 1572 0 discriminator 4
 963 0028 002B     		cmp	r3, #0
 964 002a 0FD0     		beq	.L64
1573:../src/RTOS/tasks.c **** 		{
1574:../src/RTOS/tasks.c **** 			/* Has the task already been resumed from within an ISR? */
1575:../src/RTOS/tasks.c **** 			if( listIS_CONTAINED_WITHIN( &xPendingReadyList, &( pxTCB->xEventListItem ) ) == pdFALSE )
 965              		.loc 1 1575 0 is_stmt 1
 966 002c BB68     		ldr	r3, [r7, #8]
 967 002e 9B6A     		ldr	r3, [r3, #40]
 968 0030 0B4A     		ldr	r2, .L68+4
 969 0032 9342     		cmp	r3, r2
 970 0034 0AD0     		beq	.L64
1576:../src/RTOS/tasks.c **** 			{
1577:../src/RTOS/tasks.c **** 				/* Is it in the suspended list because it is in the	Suspended
1578:../src/RTOS/tasks.c **** 				state, or because is is blocked with no timeout? */
1579:../src/RTOS/tasks.c **** 				if( listIS_CONTAINED_WITHIN( NULL, &( pxTCB->xEventListItem ) ) != pdFALSE )
 971              		.loc 1 1579 0
 972 0036 BB68     		ldr	r3, [r7, #8]
 973 0038 9B6A     		ldr	r3, [r3, #40]
 974 003a 002B     		cmp	r3, #0
 975 003c 01D1     		bne	.L65
 976              		.loc 1 1579 0 is_stmt 0 discriminator 1
 977 003e 0123     		movs	r3, #1
 978 0040 00E0     		b	.L66
 979              	.L65:
 980              		.loc 1 1579 0 discriminator 2
 981 0042 0023     		movs	r3, #0
 982              	.L66:
 983              		.loc 1 1579 0 discriminator 4
 984 0044 002B     		cmp	r3, #0
 985 0046 01D0     		beq	.L64
1580:../src/RTOS/tasks.c **** 				{
1581:../src/RTOS/tasks.c **** 					xReturn = pdTRUE;
 986              		.loc 1 1581 0 is_stmt 1
 987 0048 0123     		movs	r3, #1
 988 004a FB60     		str	r3, [r7, #12]
 989              	.L64:
1582:../src/RTOS/tasks.c **** 				}
1583:../src/RTOS/tasks.c **** 				else
1584:../src/RTOS/tasks.c **** 				{
1585:../src/RTOS/tasks.c **** 					mtCOVERAGE_TEST_MARKER();
1586:../src/RTOS/tasks.c **** 				}
1587:../src/RTOS/tasks.c **** 			}
1588:../src/RTOS/tasks.c **** 			else
1589:../src/RTOS/tasks.c **** 			{
1590:../src/RTOS/tasks.c **** 				mtCOVERAGE_TEST_MARKER();
1591:../src/RTOS/tasks.c **** 			}
1592:../src/RTOS/tasks.c **** 		}
1593:../src/RTOS/tasks.c **** 		else
1594:../src/RTOS/tasks.c **** 		{
1595:../src/RTOS/tasks.c **** 			mtCOVERAGE_TEST_MARKER();
1596:../src/RTOS/tasks.c **** 		}
1597:../src/RTOS/tasks.c **** 
1598:../src/RTOS/tasks.c **** 		return xReturn;
 990              		.loc 1 1598 0
 991 004c FB68     		ldr	r3, [r7, #12]
1599:../src/RTOS/tasks.c **** 	} /*lint !e818 xTask cannot be a pointer to const because it is a typedef. */
 992              		.loc 1 1599 0
 993 004e 1846     		mov	r0, r3
 994 0050 1437     		adds	r7, r7, #20
 995              		.cfi_def_cfa_offset 4
 996 0052 BD46     		mov	sp, r7
 997              		.cfi_def_cfa_register 13
 998              		@ sp needed
 999 0054 5DF8047B 		ldr	r7, [sp], #4
 1000              		.cfi_restore 7
 1001              		.cfi_def_cfa_offset 0
 1002 0058 7047     		bx	lr
 1003              	.L69:
 1004 005a 00BF     		.align	2
 1005              	.L68:
 1006 005c 00000000 		.word	xSuspendedTaskList
 1007 0060 00000000 		.word	xPendingReadyList
 1008              		.cfi_endproc
 1009              	.LFE10:
 1011              		.section	.text.vTaskResume,"ax",%progbits
 1012              		.align	2
 1013              		.global	vTaskResume
 1014              		.thumb
 1015              		.thumb_func
 1017              	vTaskResume:
 1018              	.LFB11:
1600:../src/RTOS/tasks.c **** 
1601:../src/RTOS/tasks.c **** #endif /* INCLUDE_vTaskSuspend */
1602:../src/RTOS/tasks.c **** /*-----------------------------------------------------------*/
1603:../src/RTOS/tasks.c **** 
1604:../src/RTOS/tasks.c **** #if ( INCLUDE_vTaskSuspend == 1 )
1605:../src/RTOS/tasks.c **** 
1606:../src/RTOS/tasks.c **** 	void vTaskResume( TaskHandle_t xTaskToResume )
1607:../src/RTOS/tasks.c **** 	{
 1019              		.loc 1 1607 0
 1020              		.cfi_startproc
 1021              		@ args = 0, pretend = 0, frame = 16
 1022              		@ frame_needed = 1, uses_anonymous_args = 0
 1023 0000 80B5     		push	{r7, lr}
 1024              		.cfi_def_cfa_offset 8
 1025              		.cfi_offset 7, -8
 1026              		.cfi_offset 14, -4
 1027 0002 84B0     		sub	sp, sp, #16
 1028              		.cfi_def_cfa_offset 24
 1029 0004 00AF     		add	r7, sp, #0
 1030              		.cfi_def_cfa_register 7
 1031 0006 7860     		str	r0, [r7, #4]
1608:../src/RTOS/tasks.c **** 	TCB_t * const pxTCB = ( TCB_t * ) xTaskToResume;
 1032              		.loc 1 1608 0
 1033 0008 7B68     		ldr	r3, [r7, #4]
 1034 000a FB60     		str	r3, [r7, #12]
1609:../src/RTOS/tasks.c **** 
1610:../src/RTOS/tasks.c **** 		/* It does not make sense to resume the calling task. */
1611:../src/RTOS/tasks.c **** 		configASSERT( xTaskToResume );
 1035              		.loc 1 1611 0
 1036 000c 7B68     		ldr	r3, [r7, #4]
 1037 000e 002B     		cmp	r3, #0
 1038 0010 00D1     		bne	.L71
 1039              	.L72:
 1040              		.loc 1 1611 0 is_stmt 0 discriminator 1
 1041 0012 FEE7     		b	.L72
 1042              	.L71:
1612:../src/RTOS/tasks.c **** 
1613:../src/RTOS/tasks.c **** 		/* The parameter cannot be NULL as it is impossible to resume the
1614:../src/RTOS/tasks.c **** 		currently executing task. */
1615:../src/RTOS/tasks.c **** 		if( ( pxTCB != NULL ) && ( pxTCB != pxCurrentTCB ) )
 1043              		.loc 1 1615 0 is_stmt 1
 1044 0014 FB68     		ldr	r3, [r7, #12]
 1045 0016 002B     		cmp	r3, #0
 1046 0018 3AD0     		beq	.L70
 1047              		.loc 1 1615 0 is_stmt 0 discriminator 1
 1048 001a 1F4B     		ldr	r3, .L76
 1049 001c 1B68     		ldr	r3, [r3]
 1050 001e FA68     		ldr	r2, [r7, #12]
 1051 0020 9A42     		cmp	r2, r3
 1052 0022 35D0     		beq	.L70
1616:../src/RTOS/tasks.c **** 		{
1617:../src/RTOS/tasks.c **** 			taskENTER_CRITICAL();
 1053              		.loc 1 1617 0 is_stmt 1
 1054 0024 FFF7FEFF 		bl	vPortEnterCritical
1618:../src/RTOS/tasks.c **** 			{
1619:../src/RTOS/tasks.c **** 				if( prvTaskIsTaskSuspended( pxTCB ) != pdFALSE )
 1055              		.loc 1 1619 0
 1056 0028 F868     		ldr	r0, [r7, #12]
 1057 002a FFF7FEFF 		bl	prvTaskIsTaskSuspended
 1058 002e 0346     		mov	r3, r0
 1059 0030 002B     		cmp	r3, #0
 1060 0032 2BD0     		beq	.L74
1620:../src/RTOS/tasks.c **** 				{
1621:../src/RTOS/tasks.c **** 					traceTASK_RESUME( pxTCB );
1622:../src/RTOS/tasks.c **** 
1623:../src/RTOS/tasks.c **** 					/* As we are in a critical section we can access the ready
1624:../src/RTOS/tasks.c **** 					lists even if the scheduler is suspended. */
1625:../src/RTOS/tasks.c **** 					( void ) uxListRemove(  &( pxTCB->xStateListItem ) );
 1061              		.loc 1 1625 0
 1062 0034 FB68     		ldr	r3, [r7, #12]
 1063 0036 0433     		adds	r3, r3, #4
 1064 0038 1846     		mov	r0, r3
 1065 003a FFF7FEFF 		bl	uxListRemove
1626:../src/RTOS/tasks.c **** 					prvAddTaskToReadyList( pxTCB );
 1066              		.loc 1 1626 0
 1067 003e FB68     		ldr	r3, [r7, #12]
 1068 0040 DA6A     		ldr	r2, [r3, #44]
 1069 0042 164B     		ldr	r3, .L76+4
 1070 0044 1B68     		ldr	r3, [r3]
 1071 0046 9A42     		cmp	r2, r3
 1072 0048 03D9     		bls	.L75
 1073              		.loc 1 1626 0 is_stmt 0 discriminator 1
 1074 004a FB68     		ldr	r3, [r7, #12]
 1075 004c DB6A     		ldr	r3, [r3, #44]
 1076 004e 134A     		ldr	r2, .L76+4
 1077 0050 1360     		str	r3, [r2]
 1078              	.L75:
 1079              		.loc 1 1626 0 discriminator 3
 1080 0052 FB68     		ldr	r3, [r7, #12]
 1081 0054 DA6A     		ldr	r2, [r3, #44]
 1082 0056 1346     		mov	r3, r2
 1083 0058 9B00     		lsls	r3, r3, #2
 1084 005a 1344     		add	r3, r3, r2
 1085 005c 9B00     		lsls	r3, r3, #2
 1086 005e 104A     		ldr	r2, .L76+8
 1087 0060 1A44     		add	r2, r2, r3
 1088 0062 FB68     		ldr	r3, [r7, #12]
 1089 0064 0433     		adds	r3, r3, #4
 1090 0066 1046     		mov	r0, r2
 1091 0068 1946     		mov	r1, r3
 1092 006a FFF7FEFF 		bl	vListInsertEnd
1627:../src/RTOS/tasks.c **** 
1628:../src/RTOS/tasks.c **** 					/* We may have just resumed a higher priority task. */
1629:../src/RTOS/tasks.c **** 					if( pxTCB->uxPriority >= pxCurrentTCB->uxPriority )
 1093              		.loc 1 1629 0 is_stmt 1 discriminator 3
 1094 006e FB68     		ldr	r3, [r7, #12]
 1095 0070 DA6A     		ldr	r2, [r3, #44]
 1096 0072 094B     		ldr	r3, .L76
 1097 0074 1B68     		ldr	r3, [r3]
 1098 0076 DB6A     		ldr	r3, [r3, #44]
 1099 0078 9A42     		cmp	r2, r3
 1100 007a 07D3     		bcc	.L74
1630:../src/RTOS/tasks.c **** 					{
1631:../src/RTOS/tasks.c **** 						/* This yield may not cause the task just resumed to run,
1632:../src/RTOS/tasks.c **** 						but will leave the lists in the correct state for the
1633:../src/RTOS/tasks.c **** 						next yield. */
1634:../src/RTOS/tasks.c **** 						taskYIELD_IF_USING_PREEMPTION();
 1101              		.loc 1 1634 0
 1102 007c 094B     		ldr	r3, .L76+12
 1103 007e 4FF08052 		mov	r2, #268435456
 1104 0082 1A60     		str	r2, [r3]
 1105              	@ 1634 "../src/RTOS/tasks.c" 1
 1106 0084 BFF34F8F 		dsb
 1107              	@ 0 "" 2
 1108              	@ 1634 "../src/RTOS/tasks.c" 1
 1109 0088 BFF36F8F 		isb
 1110              	@ 0 "" 2
 1111              		.thumb
 1112              	.L74:
1635:../src/RTOS/tasks.c **** 					}
1636:../src/RTOS/tasks.c **** 					else
1637:../src/RTOS/tasks.c **** 					{
1638:../src/RTOS/tasks.c **** 						mtCOVERAGE_TEST_MARKER();
1639:../src/RTOS/tasks.c **** 					}
1640:../src/RTOS/tasks.c **** 				}
1641:../src/RTOS/tasks.c **** 				else
1642:../src/RTOS/tasks.c **** 				{
1643:../src/RTOS/tasks.c **** 					mtCOVERAGE_TEST_MARKER();
1644:../src/RTOS/tasks.c **** 				}
1645:../src/RTOS/tasks.c **** 			}
1646:../src/RTOS/tasks.c **** 			taskEXIT_CRITICAL();
 1113              		.loc 1 1646 0
 1114 008c FFF7FEFF 		bl	vPortExitCritical
 1115              	.L70:
1647:../src/RTOS/tasks.c **** 		}
1648:../src/RTOS/tasks.c **** 		else
1649:../src/RTOS/tasks.c **** 		{
1650:../src/RTOS/tasks.c **** 			mtCOVERAGE_TEST_MARKER();
1651:../src/RTOS/tasks.c **** 		}
1652:../src/RTOS/tasks.c **** 	}
 1116              		.loc 1 1652 0
 1117 0090 1037     		adds	r7, r7, #16
 1118              		.cfi_def_cfa_offset 8
 1119 0092 BD46     		mov	sp, r7
 1120              		.cfi_def_cfa_register 13
 1121              		@ sp needed
 1122 0094 80BD     		pop	{r7, pc}
 1123              	.L77:
 1124 0096 00BF     		.align	2
 1125              	.L76:
 1126 0098 00000000 		.word	pxCurrentTCB
 1127 009c 00000000 		.word	uxTopReadyPriority
 1128 00a0 00000000 		.word	pxReadyTasksLists
 1129 00a4 04ED00E0 		.word	-536810236
 1130              		.cfi_endproc
 1131              	.LFE11:
 1133              		.section	.text.xTaskResumeFromISR,"ax",%progbits
 1134              		.align	2
 1135              		.global	xTaskResumeFromISR
 1136              		.thumb
 1137              		.thumb_func
 1139              	xTaskResumeFromISR:
 1140              	.LFB12:
1653:../src/RTOS/tasks.c **** 
1654:../src/RTOS/tasks.c **** #endif /* INCLUDE_vTaskSuspend */
1655:../src/RTOS/tasks.c **** 
1656:../src/RTOS/tasks.c **** /*-----------------------------------------------------------*/
1657:../src/RTOS/tasks.c **** 
1658:../src/RTOS/tasks.c **** #if ( ( INCLUDE_xTaskResumeFromISR == 1 ) && ( INCLUDE_vTaskSuspend == 1 ) )
1659:../src/RTOS/tasks.c **** 
1660:../src/RTOS/tasks.c **** 	BaseType_t xTaskResumeFromISR( TaskHandle_t xTaskToResume )
1661:../src/RTOS/tasks.c **** 	{
 1141              		.loc 1 1661 0
 1142              		.cfi_startproc
 1143              		@ args = 0, pretend = 0, frame = 32
 1144              		@ frame_needed = 1, uses_anonymous_args = 0
 1145 0000 80B5     		push	{r7, lr}
 1146              		.cfi_def_cfa_offset 8
 1147              		.cfi_offset 7, -8
 1148              		.cfi_offset 14, -4
 1149 0002 88B0     		sub	sp, sp, #32
 1150              		.cfi_def_cfa_offset 40
 1151 0004 00AF     		add	r7, sp, #0
 1152              		.cfi_def_cfa_register 7
 1153 0006 7860     		str	r0, [r7, #4]
1662:../src/RTOS/tasks.c **** 	BaseType_t xYieldRequired = pdFALSE;
 1154              		.loc 1 1662 0
 1155 0008 0023     		movs	r3, #0
 1156 000a FB61     		str	r3, [r7, #28]
1663:../src/RTOS/tasks.c **** 	TCB_t * const pxTCB = ( TCB_t * ) xTaskToResume;
 1157              		.loc 1 1663 0
 1158 000c 7B68     		ldr	r3, [r7, #4]
 1159 000e BB61     		str	r3, [r7, #24]
1664:../src/RTOS/tasks.c **** 	UBaseType_t uxSavedInterruptStatus;
1665:../src/RTOS/tasks.c **** 
1666:../src/RTOS/tasks.c **** 		configASSERT( xTaskToResume );
 1160              		.loc 1 1666 0
 1161 0010 7B68     		ldr	r3, [r7, #4]
 1162 0012 002B     		cmp	r3, #0
 1163 0014 00D1     		bne	.L79
 1164              	.L80:
 1165              		.loc 1 1666 0 is_stmt 0 discriminator 1
 1166 0016 FEE7     		b	.L80
 1167              	.L79:
1667:../src/RTOS/tasks.c **** 
1668:../src/RTOS/tasks.c **** 		/* RTOS ports that support interrupt nesting have the concept of a
1669:../src/RTOS/tasks.c **** 		maximum	system call (or maximum API call) interrupt priority.
1670:../src/RTOS/tasks.c **** 		Interrupts that are	above the maximum system call priority are keep
1671:../src/RTOS/tasks.c **** 		permanently enabled, even when the RTOS kernel is in a critical section,
1672:../src/RTOS/tasks.c **** 		but cannot make any calls to FreeRTOS API functions.  If configASSERT()
1673:../src/RTOS/tasks.c **** 		is defined in FreeRTOSConfig.h then
1674:../src/RTOS/tasks.c **** 		portASSERT_IF_INTERRUPT_PRIORITY_INVALID() will result in an assertion
1675:../src/RTOS/tasks.c **** 		failure if a FreeRTOS API function is called from an interrupt that has
1676:../src/RTOS/tasks.c **** 		been assigned a priority above the configured maximum system call
1677:../src/RTOS/tasks.c **** 		priority.  Only FreeRTOS functions that end in FromISR can be called
1678:../src/RTOS/tasks.c **** 		from interrupts	that have been assigned a priority at or (logically)
1679:../src/RTOS/tasks.c **** 		below the maximum system call interrupt priority.  FreeRTOS maintains a
1680:../src/RTOS/tasks.c **** 		separate interrupt safe API to ensure interrupt entry is as fast and as
1681:../src/RTOS/tasks.c **** 		simple as possible.  More information (albeit Cortex-M specific) is
1682:../src/RTOS/tasks.c **** 		provided on the following link:
1683:../src/RTOS/tasks.c **** 		http://www.freertos.org/RTOS-Cortex-M3-M4.html */
1684:../src/RTOS/tasks.c **** 		portASSERT_IF_INTERRUPT_PRIORITY_INVALID();
 1168              		.loc 1 1684 0 is_stmt 1
 1169 0018 FFF7FEFF 		bl	vPortValidateInterruptPriority
 1170              	.LBB20:
 1171              	.LBB21:
 1172              		.file 2 "U:/Thunderspace/EFM32LG330F128/RTOSincludes/portmacro.h"
   1:U:/Thunderspace/EFM32LG330F128/RTOSincludes\portmacro.h **** /*
   2:U:/Thunderspace/EFM32LG330F128/RTOSincludes\portmacro.h ****     FreeRTOS V9.0.0rc2 - Copyright (C) 2016 Real Time Engineers Ltd.
   3:U:/Thunderspace/EFM32LG330F128/RTOSincludes\portmacro.h ****     All rights reserved
   4:U:/Thunderspace/EFM32LG330F128/RTOSincludes\portmacro.h **** 
   5:U:/Thunderspace/EFM32LG330F128/RTOSincludes\portmacro.h ****     VISIT http://www.FreeRTOS.org TO ENSURE YOU ARE USING THE LATEST VERSION.
   6:U:/Thunderspace/EFM32LG330F128/RTOSincludes\portmacro.h **** 
   7:U:/Thunderspace/EFM32LG330F128/RTOSincludes\portmacro.h ****     This file is part of the FreeRTOS distribution.
   8:U:/Thunderspace/EFM32LG330F128/RTOSincludes\portmacro.h **** 
   9:U:/Thunderspace/EFM32LG330F128/RTOSincludes\portmacro.h ****     FreeRTOS is free software; you can redistribute it and/or modify it under
  10:U:/Thunderspace/EFM32LG330F128/RTOSincludes\portmacro.h ****     the terms of the GNU General Public License (version 2) as published by the
  11:U:/Thunderspace/EFM32LG330F128/RTOSincludes\portmacro.h ****     Free Software Foundation >>>> AND MODIFIED BY <<<< the FreeRTOS exception.
  12:U:/Thunderspace/EFM32LG330F128/RTOSincludes\portmacro.h **** 
  13:U:/Thunderspace/EFM32LG330F128/RTOSincludes\portmacro.h ****     ***************************************************************************
  14:U:/Thunderspace/EFM32LG330F128/RTOSincludes\portmacro.h ****     >>!   NOTE: The modification to the GPL is included to allow you to     !<<
  15:U:/Thunderspace/EFM32LG330F128/RTOSincludes\portmacro.h ****     >>!   distribute a combined work that includes FreeRTOS without being   !<<
  16:U:/Thunderspace/EFM32LG330F128/RTOSincludes\portmacro.h ****     >>!   obliged to provide the source code for proprietary components     !<<
  17:U:/Thunderspace/EFM32LG330F128/RTOSincludes\portmacro.h ****     >>!   outside of the FreeRTOS kernel.                                   !<<
  18:U:/Thunderspace/EFM32LG330F128/RTOSincludes\portmacro.h ****     ***************************************************************************
  19:U:/Thunderspace/EFM32LG330F128/RTOSincludes\portmacro.h **** 
  20:U:/Thunderspace/EFM32LG330F128/RTOSincludes\portmacro.h ****     FreeRTOS is distributed in the hope that it will be useful, but WITHOUT ANY
  21:U:/Thunderspace/EFM32LG330F128/RTOSincludes\portmacro.h ****     WARRANTY; without even the implied warranty of MERCHANTABILITY or FITNESS
  22:U:/Thunderspace/EFM32LG330F128/RTOSincludes\portmacro.h ****     FOR A PARTICULAR PURPOSE.  Full license text is available on the following
  23:U:/Thunderspace/EFM32LG330F128/RTOSincludes\portmacro.h ****     link: http://www.freertos.org/a00114.html
  24:U:/Thunderspace/EFM32LG330F128/RTOSincludes\portmacro.h **** 
  25:U:/Thunderspace/EFM32LG330F128/RTOSincludes\portmacro.h ****     ***************************************************************************
  26:U:/Thunderspace/EFM32LG330F128/RTOSincludes\portmacro.h ****      *                                                                       *
  27:U:/Thunderspace/EFM32LG330F128/RTOSincludes\portmacro.h ****      *    FreeRTOS provides completely free yet professionally developed,    *
  28:U:/Thunderspace/EFM32LG330F128/RTOSincludes\portmacro.h ****      *    robust, strictly quality controlled, supported, and cross          *
  29:U:/Thunderspace/EFM32LG330F128/RTOSincludes\portmacro.h ****      *    platform software that is more than just the market leader, it     *
  30:U:/Thunderspace/EFM32LG330F128/RTOSincludes\portmacro.h ****      *    is the industry's de facto standard.                               *
  31:U:/Thunderspace/EFM32LG330F128/RTOSincludes\portmacro.h ****      *                                                                       *
  32:U:/Thunderspace/EFM32LG330F128/RTOSincludes\portmacro.h ****      *    Help yourself get started quickly while simultaneously helping     *
  33:U:/Thunderspace/EFM32LG330F128/RTOSincludes\portmacro.h ****      *    to support the FreeRTOS project by purchasing a FreeRTOS           *
  34:U:/Thunderspace/EFM32LG330F128/RTOSincludes\portmacro.h ****      *    tutorial book, reference manual, or both:                          *
  35:U:/Thunderspace/EFM32LG330F128/RTOSincludes\portmacro.h ****      *    http://www.FreeRTOS.org/Documentation                              *
  36:U:/Thunderspace/EFM32LG330F128/RTOSincludes\portmacro.h ****      *                                                                       *
  37:U:/Thunderspace/EFM32LG330F128/RTOSincludes\portmacro.h ****     ***************************************************************************
  38:U:/Thunderspace/EFM32LG330F128/RTOSincludes\portmacro.h **** 
  39:U:/Thunderspace/EFM32LG330F128/RTOSincludes\portmacro.h ****     http://www.FreeRTOS.org/FAQHelp.html - Having a problem?  Start by reading
  40:U:/Thunderspace/EFM32LG330F128/RTOSincludes\portmacro.h ****     the FAQ page "My application does not run, what could be wrong?".  Have you
  41:U:/Thunderspace/EFM32LG330F128/RTOSincludes\portmacro.h ****     defined configASSERT()?
  42:U:/Thunderspace/EFM32LG330F128/RTOSincludes\portmacro.h **** 
  43:U:/Thunderspace/EFM32LG330F128/RTOSincludes\portmacro.h ****     http://www.FreeRTOS.org/support - In return for receiving this top quality
  44:U:/Thunderspace/EFM32LG330F128/RTOSincludes\portmacro.h ****     embedded software for free we request you assist our global community by
  45:U:/Thunderspace/EFM32LG330F128/RTOSincludes\portmacro.h ****     participating in the support forum.
  46:U:/Thunderspace/EFM32LG330F128/RTOSincludes\portmacro.h **** 
  47:U:/Thunderspace/EFM32LG330F128/RTOSincludes\portmacro.h ****     http://www.FreeRTOS.org/training - Investing in training allows your team to
  48:U:/Thunderspace/EFM32LG330F128/RTOSincludes\portmacro.h ****     be as productive as possible as early as possible.  Now you can receive
  49:U:/Thunderspace/EFM32LG330F128/RTOSincludes\portmacro.h ****     FreeRTOS training directly from Richard Barry, CEO of Real Time Engineers
  50:U:/Thunderspace/EFM32LG330F128/RTOSincludes\portmacro.h ****     Ltd, and the world's leading authority on the world's leading RTOS.
  51:U:/Thunderspace/EFM32LG330F128/RTOSincludes\portmacro.h **** 
  52:U:/Thunderspace/EFM32LG330F128/RTOSincludes\portmacro.h ****     http://www.FreeRTOS.org/plus - A selection of FreeRTOS ecosystem products,
  53:U:/Thunderspace/EFM32LG330F128/RTOSincludes\portmacro.h ****     including FreeRTOS+Trace - an indispensable productivity tool, a DOS
  54:U:/Thunderspace/EFM32LG330F128/RTOSincludes\portmacro.h ****     compatible FAT file system, and our tiny thread aware UDP/IP stack.
  55:U:/Thunderspace/EFM32LG330F128/RTOSincludes\portmacro.h **** 
  56:U:/Thunderspace/EFM32LG330F128/RTOSincludes\portmacro.h ****     http://www.FreeRTOS.org/labs - Where new FreeRTOS products go to incubate.
  57:U:/Thunderspace/EFM32LG330F128/RTOSincludes\portmacro.h ****     Come and try FreeRTOS+TCP, our new open source TCP/IP stack for FreeRTOS.
  58:U:/Thunderspace/EFM32LG330F128/RTOSincludes\portmacro.h **** 
  59:U:/Thunderspace/EFM32LG330F128/RTOSincludes\portmacro.h ****     http://www.OpenRTOS.com - Real Time Engineers ltd. license FreeRTOS to High
  60:U:/Thunderspace/EFM32LG330F128/RTOSincludes\portmacro.h ****     Integrity Systems ltd. to sell under the OpenRTOS brand.  Low cost OpenRTOS
  61:U:/Thunderspace/EFM32LG330F128/RTOSincludes\portmacro.h ****     licenses offer ticketed support, indemnification and commercial middleware.
  62:U:/Thunderspace/EFM32LG330F128/RTOSincludes\portmacro.h **** 
  63:U:/Thunderspace/EFM32LG330F128/RTOSincludes\portmacro.h ****     http://www.SafeRTOS.com - High Integrity Systems also provide a safety
  64:U:/Thunderspace/EFM32LG330F128/RTOSincludes\portmacro.h ****     engineered and independently SIL3 certified version for use in safety and
  65:U:/Thunderspace/EFM32LG330F128/RTOSincludes\portmacro.h ****     mission critical applications that require provable dependability.
  66:U:/Thunderspace/EFM32LG330F128/RTOSincludes\portmacro.h **** 
  67:U:/Thunderspace/EFM32LG330F128/RTOSincludes\portmacro.h ****     1 tab == 4 spaces!
  68:U:/Thunderspace/EFM32LG330F128/RTOSincludes\portmacro.h **** */
  69:U:/Thunderspace/EFM32LG330F128/RTOSincludes\portmacro.h **** 
  70:U:/Thunderspace/EFM32LG330F128/RTOSincludes\portmacro.h **** 
  71:U:/Thunderspace/EFM32LG330F128/RTOSincludes\portmacro.h **** #ifndef PORTMACRO_H
  72:U:/Thunderspace/EFM32LG330F128/RTOSincludes\portmacro.h **** #define PORTMACRO_H
  73:U:/Thunderspace/EFM32LG330F128/RTOSincludes\portmacro.h **** 
  74:U:/Thunderspace/EFM32LG330F128/RTOSincludes\portmacro.h **** #ifdef __cplusplus
  75:U:/Thunderspace/EFM32LG330F128/RTOSincludes\portmacro.h **** extern "C" {
  76:U:/Thunderspace/EFM32LG330F128/RTOSincludes\portmacro.h **** #endif
  77:U:/Thunderspace/EFM32LG330F128/RTOSincludes\portmacro.h **** 
  78:U:/Thunderspace/EFM32LG330F128/RTOSincludes\portmacro.h **** /*-----------------------------------------------------------
  79:U:/Thunderspace/EFM32LG330F128/RTOSincludes\portmacro.h ****  * Port specific definitions.
  80:U:/Thunderspace/EFM32LG330F128/RTOSincludes\portmacro.h ****  *
  81:U:/Thunderspace/EFM32LG330F128/RTOSincludes\portmacro.h ****  * The settings in this file configure FreeRTOS correctly for the
  82:U:/Thunderspace/EFM32LG330F128/RTOSincludes\portmacro.h ****  * given hardware and compiler.
  83:U:/Thunderspace/EFM32LG330F128/RTOSincludes\portmacro.h ****  *
  84:U:/Thunderspace/EFM32LG330F128/RTOSincludes\portmacro.h ****  * These settings should not be altered.
  85:U:/Thunderspace/EFM32LG330F128/RTOSincludes\portmacro.h ****  *-----------------------------------------------------------
  86:U:/Thunderspace/EFM32LG330F128/RTOSincludes\portmacro.h ****  */
  87:U:/Thunderspace/EFM32LG330F128/RTOSincludes\portmacro.h **** 
  88:U:/Thunderspace/EFM32LG330F128/RTOSincludes\portmacro.h **** /* Type definitions. */
  89:U:/Thunderspace/EFM32LG330F128/RTOSincludes\portmacro.h **** #define portCHAR		char
  90:U:/Thunderspace/EFM32LG330F128/RTOSincludes\portmacro.h **** #define portFLOAT		float
  91:U:/Thunderspace/EFM32LG330F128/RTOSincludes\portmacro.h **** #define portDOUBLE		double
  92:U:/Thunderspace/EFM32LG330F128/RTOSincludes\portmacro.h **** #define portLONG		long
  93:U:/Thunderspace/EFM32LG330F128/RTOSincludes\portmacro.h **** #define portSHORT		short
  94:U:/Thunderspace/EFM32LG330F128/RTOSincludes\portmacro.h **** #define portSTACK_TYPE	uint32_t
  95:U:/Thunderspace/EFM32LG330F128/RTOSincludes\portmacro.h **** #define portBASE_TYPE	long
  96:U:/Thunderspace/EFM32LG330F128/RTOSincludes\portmacro.h **** 
  97:U:/Thunderspace/EFM32LG330F128/RTOSincludes\portmacro.h **** typedef portSTACK_TYPE StackType_t;
  98:U:/Thunderspace/EFM32LG330F128/RTOSincludes\portmacro.h **** typedef long BaseType_t;
  99:U:/Thunderspace/EFM32LG330F128/RTOSincludes\portmacro.h **** typedef unsigned long UBaseType_t;
 100:U:/Thunderspace/EFM32LG330F128/RTOSincludes\portmacro.h **** 
 101:U:/Thunderspace/EFM32LG330F128/RTOSincludes\portmacro.h **** #if( configUSE_16_BIT_TICKS == 1 )
 102:U:/Thunderspace/EFM32LG330F128/RTOSincludes\portmacro.h **** 	typedef uint16_t TickType_t;
 103:U:/Thunderspace/EFM32LG330F128/RTOSincludes\portmacro.h **** 	#define portMAX_DELAY ( TickType_t ) 0xffff
 104:U:/Thunderspace/EFM32LG330F128/RTOSincludes\portmacro.h **** #else
 105:U:/Thunderspace/EFM32LG330F128/RTOSincludes\portmacro.h **** 	typedef uint32_t TickType_t;
 106:U:/Thunderspace/EFM32LG330F128/RTOSincludes\portmacro.h **** 	#define portMAX_DELAY ( TickType_t ) 0xffffffffUL
 107:U:/Thunderspace/EFM32LG330F128/RTOSincludes\portmacro.h **** 
 108:U:/Thunderspace/EFM32LG330F128/RTOSincludes\portmacro.h **** 	/* 32-bit tick type on a 32-bit architecture, so reads of the tick count do
 109:U:/Thunderspace/EFM32LG330F128/RTOSincludes\portmacro.h **** 	not need to be guarded with a critical section. */
 110:U:/Thunderspace/EFM32LG330F128/RTOSincludes\portmacro.h **** 	#define portTICK_TYPE_IS_ATOMIC 1
 111:U:/Thunderspace/EFM32LG330F128/RTOSincludes\portmacro.h **** #endif
 112:U:/Thunderspace/EFM32LG330F128/RTOSincludes\portmacro.h **** /*-----------------------------------------------------------*/
 113:U:/Thunderspace/EFM32LG330F128/RTOSincludes\portmacro.h **** 
 114:U:/Thunderspace/EFM32LG330F128/RTOSincludes\portmacro.h **** /* Architecture specifics. */
 115:U:/Thunderspace/EFM32LG330F128/RTOSincludes\portmacro.h **** #define portSTACK_GROWTH			( -1 )
 116:U:/Thunderspace/EFM32LG330F128/RTOSincludes\portmacro.h **** #define portTICK_PERIOD_MS			( ( TickType_t ) 1000 / configTICK_RATE_HZ )
 117:U:/Thunderspace/EFM32LG330F128/RTOSincludes\portmacro.h **** #define portBYTE_ALIGNMENT			8
 118:U:/Thunderspace/EFM32LG330F128/RTOSincludes\portmacro.h **** /*-----------------------------------------------------------*/
 119:U:/Thunderspace/EFM32LG330F128/RTOSincludes\portmacro.h **** 
 120:U:/Thunderspace/EFM32LG330F128/RTOSincludes\portmacro.h **** /* Scheduler utilities. */
 121:U:/Thunderspace/EFM32LG330F128/RTOSincludes\portmacro.h **** #define portYIELD() 															\
 122:U:/Thunderspace/EFM32LG330F128/RTOSincludes\portmacro.h **** {																				\
 123:U:/Thunderspace/EFM32LG330F128/RTOSincludes\portmacro.h **** 	/* Set a PendSV to request a context switch. */								\
 124:U:/Thunderspace/EFM32LG330F128/RTOSincludes\portmacro.h **** 	portNVIC_INT_CTRL_REG = portNVIC_PENDSVSET_BIT;								\
 125:U:/Thunderspace/EFM32LG330F128/RTOSincludes\portmacro.h **** 																				\
 126:U:/Thunderspace/EFM32LG330F128/RTOSincludes\portmacro.h **** 	/* Barriers are normally not required but do ensure the code is completely	\
 127:U:/Thunderspace/EFM32LG330F128/RTOSincludes\portmacro.h **** 	within the specified behaviour for the architecture. */						\
 128:U:/Thunderspace/EFM32LG330F128/RTOSincludes\portmacro.h **** 	__asm volatile( "dsb" );													\
 129:U:/Thunderspace/EFM32LG330F128/RTOSincludes\portmacro.h **** 	__asm volatile( "isb" );													\
 130:U:/Thunderspace/EFM32LG330F128/RTOSincludes\portmacro.h **** }
 131:U:/Thunderspace/EFM32LG330F128/RTOSincludes\portmacro.h **** 
 132:U:/Thunderspace/EFM32LG330F128/RTOSincludes\portmacro.h **** #define portNVIC_INT_CTRL_REG		( * ( ( volatile uint32_t * ) 0xe000ed04 ) )
 133:U:/Thunderspace/EFM32LG330F128/RTOSincludes\portmacro.h **** #define portNVIC_PENDSVSET_BIT		( 1UL << 28UL )
 134:U:/Thunderspace/EFM32LG330F128/RTOSincludes\portmacro.h **** #define portEND_SWITCHING_ISR( xSwitchRequired ) if( xSwitchRequired != pdFALSE ) portYIELD()
 135:U:/Thunderspace/EFM32LG330F128/RTOSincludes\portmacro.h **** #define portYIELD_FROM_ISR( x ) portEND_SWITCHING_ISR( x )
 136:U:/Thunderspace/EFM32LG330F128/RTOSincludes\portmacro.h **** /*-----------------------------------------------------------*/
 137:U:/Thunderspace/EFM32LG330F128/RTOSincludes\portmacro.h **** 
 138:U:/Thunderspace/EFM32LG330F128/RTOSincludes\portmacro.h **** /* Critical section management. */
 139:U:/Thunderspace/EFM32LG330F128/RTOSincludes\portmacro.h **** extern void vPortEnterCritical( void );
 140:U:/Thunderspace/EFM32LG330F128/RTOSincludes\portmacro.h **** extern void vPortExitCritical( void );
 141:U:/Thunderspace/EFM32LG330F128/RTOSincludes\portmacro.h **** #define portSET_INTERRUPT_MASK_FROM_ISR()		ulPortRaiseBASEPRI()
 142:U:/Thunderspace/EFM32LG330F128/RTOSincludes\portmacro.h **** #define portCLEAR_INTERRUPT_MASK_FROM_ISR(x)	vPortSetBASEPRI(x)
 143:U:/Thunderspace/EFM32LG330F128/RTOSincludes\portmacro.h **** #define portDISABLE_INTERRUPTS()				vPortRaiseBASEPRI()
 144:U:/Thunderspace/EFM32LG330F128/RTOSincludes\portmacro.h **** #define portENABLE_INTERRUPTS()					vPortSetBASEPRI(0)
 145:U:/Thunderspace/EFM32LG330F128/RTOSincludes\portmacro.h **** #define portENTER_CRITICAL()					vPortEnterCritical()
 146:U:/Thunderspace/EFM32LG330F128/RTOSincludes\portmacro.h **** #define portEXIT_CRITICAL()						vPortExitCritical()
 147:U:/Thunderspace/EFM32LG330F128/RTOSincludes\portmacro.h **** 
 148:U:/Thunderspace/EFM32LG330F128/RTOSincludes\portmacro.h **** /*-----------------------------------------------------------*/
 149:U:/Thunderspace/EFM32LG330F128/RTOSincludes\portmacro.h **** 
 150:U:/Thunderspace/EFM32LG330F128/RTOSincludes\portmacro.h **** /* Task function macros as described on the FreeRTOS.org WEB site.  These are
 151:U:/Thunderspace/EFM32LG330F128/RTOSincludes\portmacro.h **** not necessary for to use this port.  They are defined so the common demo files
 152:U:/Thunderspace/EFM32LG330F128/RTOSincludes\portmacro.h **** (which build with all the ports) will build. */
 153:U:/Thunderspace/EFM32LG330F128/RTOSincludes\portmacro.h **** #define portTASK_FUNCTION_PROTO( vFunction, pvParameters ) void vFunction( void *pvParameters )
 154:U:/Thunderspace/EFM32LG330F128/RTOSincludes\portmacro.h **** #define portTASK_FUNCTION( vFunction, pvParameters ) void vFunction( void *pvParameters )
 155:U:/Thunderspace/EFM32LG330F128/RTOSincludes\portmacro.h **** /*-----------------------------------------------------------*/
 156:U:/Thunderspace/EFM32LG330F128/RTOSincludes\portmacro.h **** 
 157:U:/Thunderspace/EFM32LG330F128/RTOSincludes\portmacro.h **** /* Tickless idle/low power functionality. */
 158:U:/Thunderspace/EFM32LG330F128/RTOSincludes\portmacro.h **** #ifndef portSUPPRESS_TICKS_AND_SLEEP
 159:U:/Thunderspace/EFM32LG330F128/RTOSincludes\portmacro.h **** 	extern void vPortSuppressTicksAndSleep( TickType_t xExpectedIdleTime );
 160:U:/Thunderspace/EFM32LG330F128/RTOSincludes\portmacro.h **** 	#define portSUPPRESS_TICKS_AND_SLEEP( xExpectedIdleTime ) vPortSuppressTicksAndSleep( xExpectedIdl
 161:U:/Thunderspace/EFM32LG330F128/RTOSincludes\portmacro.h **** #endif
 162:U:/Thunderspace/EFM32LG330F128/RTOSincludes\portmacro.h **** /*-----------------------------------------------------------*/
 163:U:/Thunderspace/EFM32LG330F128/RTOSincludes\portmacro.h **** 
 164:U:/Thunderspace/EFM32LG330F128/RTOSincludes\portmacro.h **** /* Architecture specific optimisations. */
 165:U:/Thunderspace/EFM32LG330F128/RTOSincludes\portmacro.h **** #ifndef configUSE_PORT_OPTIMISED_TASK_SELECTION
 166:U:/Thunderspace/EFM32LG330F128/RTOSincludes\portmacro.h **** 	#define configUSE_PORT_OPTIMISED_TASK_SELECTION 1
 167:U:/Thunderspace/EFM32LG330F128/RTOSincludes\portmacro.h **** #endif
 168:U:/Thunderspace/EFM32LG330F128/RTOSincludes\portmacro.h **** 
 169:U:/Thunderspace/EFM32LG330F128/RTOSincludes\portmacro.h **** #if configUSE_PORT_OPTIMISED_TASK_SELECTION == 1
 170:U:/Thunderspace/EFM32LG330F128/RTOSincludes\portmacro.h **** 
 171:U:/Thunderspace/EFM32LG330F128/RTOSincludes\portmacro.h **** 	/* Generic helper function. */
 172:U:/Thunderspace/EFM32LG330F128/RTOSincludes\portmacro.h **** 	__attribute__( ( always_inline ) ) static inline uint8_t ucPortCountLeadingZeros( uint32_t ulBitma
 173:U:/Thunderspace/EFM32LG330F128/RTOSincludes\portmacro.h **** 	{
 174:U:/Thunderspace/EFM32LG330F128/RTOSincludes\portmacro.h **** 	uint8_t ucReturn;
 175:U:/Thunderspace/EFM32LG330F128/RTOSincludes\portmacro.h **** 
 176:U:/Thunderspace/EFM32LG330F128/RTOSincludes\portmacro.h **** 		__asm volatile ( "clz %0, %1" : "=r" ( ucReturn ) : "r" ( ulBitmap ) );
 177:U:/Thunderspace/EFM32LG330F128/RTOSincludes\portmacro.h **** 		return ucReturn;
 178:U:/Thunderspace/EFM32LG330F128/RTOSincludes\portmacro.h **** 	}
 179:U:/Thunderspace/EFM32LG330F128/RTOSincludes\portmacro.h **** 
 180:U:/Thunderspace/EFM32LG330F128/RTOSincludes\portmacro.h **** 	/* Check the configuration. */
 181:U:/Thunderspace/EFM32LG330F128/RTOSincludes\portmacro.h **** 	#if( configMAX_PRIORITIES > 32 )
 182:U:/Thunderspace/EFM32LG330F128/RTOSincludes\portmacro.h **** 		#error configUSE_PORT_OPTIMISED_TASK_SELECTION can only be set to 1 when configMAX_PRIORITIES is 
 183:U:/Thunderspace/EFM32LG330F128/RTOSincludes\portmacro.h **** 	#endif
 184:U:/Thunderspace/EFM32LG330F128/RTOSincludes\portmacro.h **** 
 185:U:/Thunderspace/EFM32LG330F128/RTOSincludes\portmacro.h **** 	/* Store/clear the ready priorities in a bit map. */
 186:U:/Thunderspace/EFM32LG330F128/RTOSincludes\portmacro.h **** 	#define portRECORD_READY_PRIORITY( uxPriority, uxReadyPriorities ) ( uxReadyPriorities ) |= ( 1UL 
 187:U:/Thunderspace/EFM32LG330F128/RTOSincludes\portmacro.h **** 	#define portRESET_READY_PRIORITY( uxPriority, uxReadyPriorities ) ( uxReadyPriorities ) &= ~( 1UL 
 188:U:/Thunderspace/EFM32LG330F128/RTOSincludes\portmacro.h **** 
 189:U:/Thunderspace/EFM32LG330F128/RTOSincludes\portmacro.h **** 	/*-----------------------------------------------------------*/
 190:U:/Thunderspace/EFM32LG330F128/RTOSincludes\portmacro.h **** 
 191:U:/Thunderspace/EFM32LG330F128/RTOSincludes\portmacro.h **** 	#define portGET_HIGHEST_PRIORITY( uxTopPriority, uxReadyPriorities ) uxTopPriority = ( 31UL - ( ui
 192:U:/Thunderspace/EFM32LG330F128/RTOSincludes\portmacro.h **** 
 193:U:/Thunderspace/EFM32LG330F128/RTOSincludes\portmacro.h **** #endif /* configUSE_PORT_OPTIMISED_TASK_SELECTION */
 194:U:/Thunderspace/EFM32LG330F128/RTOSincludes\portmacro.h **** 
 195:U:/Thunderspace/EFM32LG330F128/RTOSincludes\portmacro.h **** /*-----------------------------------------------------------*/
 196:U:/Thunderspace/EFM32LG330F128/RTOSincludes\portmacro.h **** 
 197:U:/Thunderspace/EFM32LG330F128/RTOSincludes\portmacro.h **** #ifdef configASSERT
 198:U:/Thunderspace/EFM32LG330F128/RTOSincludes\portmacro.h **** 	void vPortValidateInterruptPriority( void );
 199:U:/Thunderspace/EFM32LG330F128/RTOSincludes\portmacro.h **** 	#define portASSERT_IF_INTERRUPT_PRIORITY_INVALID() 	vPortValidateInterruptPriority()
 200:U:/Thunderspace/EFM32LG330F128/RTOSincludes\portmacro.h **** #endif
 201:U:/Thunderspace/EFM32LG330F128/RTOSincludes\portmacro.h **** 
 202:U:/Thunderspace/EFM32LG330F128/RTOSincludes\portmacro.h **** /* portNOP() is not required by this port. */
 203:U:/Thunderspace/EFM32LG330F128/RTOSincludes\portmacro.h **** #define portNOP()
 204:U:/Thunderspace/EFM32LG330F128/RTOSincludes\portmacro.h **** 
 205:U:/Thunderspace/EFM32LG330F128/RTOSincludes\portmacro.h **** #define portINLINE	__inline
 206:U:/Thunderspace/EFM32LG330F128/RTOSincludes\portmacro.h **** 
 207:U:/Thunderspace/EFM32LG330F128/RTOSincludes\portmacro.h **** #ifndef portFORCE_INLINE
 208:U:/Thunderspace/EFM32LG330F128/RTOSincludes\portmacro.h **** 	#define portFORCE_INLINE inline __attribute__(( always_inline))
 209:U:/Thunderspace/EFM32LG330F128/RTOSincludes\portmacro.h **** #endif
 210:U:/Thunderspace/EFM32LG330F128/RTOSincludes\portmacro.h **** 
 211:U:/Thunderspace/EFM32LG330F128/RTOSincludes\portmacro.h **** portFORCE_INLINE static BaseType_t xPortIsInsideInterrupt( void )
 212:U:/Thunderspace/EFM32LG330F128/RTOSincludes\portmacro.h **** {
 213:U:/Thunderspace/EFM32LG330F128/RTOSincludes\portmacro.h **** uint32_t ulCurrentInterrupt;
 214:U:/Thunderspace/EFM32LG330F128/RTOSincludes\portmacro.h **** BaseType_t xReturn;
 215:U:/Thunderspace/EFM32LG330F128/RTOSincludes\portmacro.h **** 
 216:U:/Thunderspace/EFM32LG330F128/RTOSincludes\portmacro.h **** 	/* Obtain the number of the currently executing interrupt. */
 217:U:/Thunderspace/EFM32LG330F128/RTOSincludes\portmacro.h **** 	__asm volatile( "mrs %0, ipsr" : "=r"( ulCurrentInterrupt ) );
 218:U:/Thunderspace/EFM32LG330F128/RTOSincludes\portmacro.h **** 
 219:U:/Thunderspace/EFM32LG330F128/RTOSincludes\portmacro.h **** 	if( ulCurrentInterrupt == 0 )
 220:U:/Thunderspace/EFM32LG330F128/RTOSincludes\portmacro.h **** 	{
 221:U:/Thunderspace/EFM32LG330F128/RTOSincludes\portmacro.h **** 		xReturn = pdFALSE;
 222:U:/Thunderspace/EFM32LG330F128/RTOSincludes\portmacro.h **** 	}
 223:U:/Thunderspace/EFM32LG330F128/RTOSincludes\portmacro.h **** 	else
 224:U:/Thunderspace/EFM32LG330F128/RTOSincludes\portmacro.h **** 	{
 225:U:/Thunderspace/EFM32LG330F128/RTOSincludes\portmacro.h **** 		xReturn = pdTRUE;
 226:U:/Thunderspace/EFM32LG330F128/RTOSincludes\portmacro.h **** 	}
 227:U:/Thunderspace/EFM32LG330F128/RTOSincludes\portmacro.h **** 
 228:U:/Thunderspace/EFM32LG330F128/RTOSincludes\portmacro.h **** 	return xReturn;
 229:U:/Thunderspace/EFM32LG330F128/RTOSincludes\portmacro.h **** }
 230:U:/Thunderspace/EFM32LG330F128/RTOSincludes\portmacro.h **** 
 231:U:/Thunderspace/EFM32LG330F128/RTOSincludes\portmacro.h **** /*-----------------------------------------------------------*/
 232:U:/Thunderspace/EFM32LG330F128/RTOSincludes\portmacro.h **** 
 233:U:/Thunderspace/EFM32LG330F128/RTOSincludes\portmacro.h **** portFORCE_INLINE static void vPortRaiseBASEPRI( void )
 234:U:/Thunderspace/EFM32LG330F128/RTOSincludes\portmacro.h **** {
 235:U:/Thunderspace/EFM32LG330F128/RTOSincludes\portmacro.h **** uint32_t ulNewBASEPRI;
 236:U:/Thunderspace/EFM32LG330F128/RTOSincludes\portmacro.h **** 
 237:U:/Thunderspace/EFM32LG330F128/RTOSincludes\portmacro.h **** 	__asm volatile
 238:U:/Thunderspace/EFM32LG330F128/RTOSincludes\portmacro.h **** 	(
 239:U:/Thunderspace/EFM32LG330F128/RTOSincludes\portmacro.h **** 		"	mov %0, %1												\n"	\
 240:U:/Thunderspace/EFM32LG330F128/RTOSincludes\portmacro.h **** 		"	msr basepri, %0											\n" \
 241:U:/Thunderspace/EFM32LG330F128/RTOSincludes\portmacro.h **** 		"	isb														\n" \
 242:U:/Thunderspace/EFM32LG330F128/RTOSincludes\portmacro.h **** 		"	dsb														\n" \
 243:U:/Thunderspace/EFM32LG330F128/RTOSincludes\portmacro.h **** 		:"=r" (ulNewBASEPRI) : "i" ( configMAX_SYSCALL_INTERRUPT_PRIORITY )
 244:U:/Thunderspace/EFM32LG330F128/RTOSincludes\portmacro.h **** 	);
 245:U:/Thunderspace/EFM32LG330F128/RTOSincludes\portmacro.h **** }
 246:U:/Thunderspace/EFM32LG330F128/RTOSincludes\portmacro.h **** 
 247:U:/Thunderspace/EFM32LG330F128/RTOSincludes\portmacro.h **** /*-----------------------------------------------------------*/
 248:U:/Thunderspace/EFM32LG330F128/RTOSincludes\portmacro.h **** 
 249:U:/Thunderspace/EFM32LG330F128/RTOSincludes\portmacro.h **** portFORCE_INLINE static uint32_t ulPortRaiseBASEPRI( void )
 250:U:/Thunderspace/EFM32LG330F128/RTOSincludes\portmacro.h **** {
 251:U:/Thunderspace/EFM32LG330F128/RTOSincludes\portmacro.h **** uint32_t ulOriginalBASEPRI, ulNewBASEPRI;
 252:U:/Thunderspace/EFM32LG330F128/RTOSincludes\portmacro.h **** 
 253:U:/Thunderspace/EFM32LG330F128/RTOSincludes\portmacro.h **** 	__asm volatile
 1173              		.loc 2 253 0
 1174              	@ 253 "U:/Thunderspace/EFM32LG330F128/RTOSincludes/portmacro.h" 1
 1175 001c EFF31182 			mrs r2, basepri											
 1176 0020 4FF0BF03 		mov r3, #191												
 1177 0024 83F31188 		msr basepri, r3											
 1178 0028 BFF36F8F 		isb														
 1179 002c BFF34F8F 		dsb														
 1180              	
 1181              	@ 0 "" 2
 1182              		.thumb
 1183 0030 3A61     		str	r2, [r7, #16]
 1184 0032 FB60     		str	r3, [r7, #12]
 254:U:/Thunderspace/EFM32LG330F128/RTOSincludes\portmacro.h **** 	(
 255:U:/Thunderspace/EFM32LG330F128/RTOSincludes\portmacro.h **** 		"	mrs %0, basepri											\n" \
 256:U:/Thunderspace/EFM32LG330F128/RTOSincludes\portmacro.h **** 		"	mov %1, %2												\n"	\
 257:U:/Thunderspace/EFM32LG330F128/RTOSincludes\portmacro.h **** 		"	msr basepri, %1											\n" \
 258:U:/Thunderspace/EFM32LG330F128/RTOSincludes\portmacro.h **** 		"	isb														\n" \
 259:U:/Thunderspace/EFM32LG330F128/RTOSincludes\portmacro.h **** 		"	dsb														\n" \
 260:U:/Thunderspace/EFM32LG330F128/RTOSincludes\portmacro.h **** 		:"=r" (ulOriginalBASEPRI), "=r" (ulNewBASEPRI) : "i" ( configMAX_SYSCALL_INTERRUPT_PRIORITY )
 261:U:/Thunderspace/EFM32LG330F128/RTOSincludes\portmacro.h **** 	);
 262:U:/Thunderspace/EFM32LG330F128/RTOSincludes\portmacro.h **** 
 263:U:/Thunderspace/EFM32LG330F128/RTOSincludes\portmacro.h **** 	/* This return will not be reached but is necessary to prevent compiler
 264:U:/Thunderspace/EFM32LG330F128/RTOSincludes\portmacro.h **** 	warnings. */
 265:U:/Thunderspace/EFM32LG330F128/RTOSincludes\portmacro.h **** 	return ulOriginalBASEPRI;
 1185              		.loc 2 265 0
 1186 0034 3B69     		ldr	r3, [r7, #16]
 1187              	.LBE21:
 1188              	.LBE20:
1685:../src/RTOS/tasks.c **** 
1686:../src/RTOS/tasks.c **** 		uxSavedInterruptStatus = portSET_INTERRUPT_MASK_FROM_ISR();
 1189              		.loc 1 1686 0
 1190 0036 7B61     		str	r3, [r7, #20]
1687:../src/RTOS/tasks.c **** 		{
1688:../src/RTOS/tasks.c **** 			if( prvTaskIsTaskSuspended( pxTCB ) != pdFALSE )
 1191              		.loc 1 1688 0
 1192 0038 B869     		ldr	r0, [r7, #24]
 1193 003a FFF7FEFF 		bl	prvTaskIsTaskSuspended
 1194 003e 0346     		mov	r3, r0
 1195 0040 002B     		cmp	r3, #0
 1196 0042 30D0     		beq	.L82
1689:../src/RTOS/tasks.c **** 			{
1690:../src/RTOS/tasks.c **** 				traceTASK_RESUME_FROM_ISR( pxTCB );
1691:../src/RTOS/tasks.c **** 
1692:../src/RTOS/tasks.c **** 				/* Check the ready lists can be accessed. */
1693:../src/RTOS/tasks.c **** 				if( uxSchedulerSuspended == ( UBaseType_t ) pdFALSE )
 1197              		.loc 1 1693 0
 1198 0044 1D4B     		ldr	r3, .L88
 1199 0046 1B68     		ldr	r3, [r3]
 1200 0048 002B     		cmp	r3, #0
 1201 004a 26D1     		bne	.L83
1694:../src/RTOS/tasks.c **** 				{
1695:../src/RTOS/tasks.c **** 					/* Ready lists can be accessed so move the task from the
1696:../src/RTOS/tasks.c **** 					suspended list to the ready list directly. */
1697:../src/RTOS/tasks.c **** 					if( pxTCB->uxPriority >= pxCurrentTCB->uxPriority )
 1202              		.loc 1 1697 0
 1203 004c BB69     		ldr	r3, [r7, #24]
 1204 004e DA6A     		ldr	r2, [r3, #44]
 1205 0050 1B4B     		ldr	r3, .L88+4
 1206 0052 1B68     		ldr	r3, [r3]
 1207 0054 DB6A     		ldr	r3, [r3, #44]
 1208 0056 9A42     		cmp	r2, r3
 1209 0058 01D3     		bcc	.L84
1698:../src/RTOS/tasks.c **** 					{
1699:../src/RTOS/tasks.c **** 						xYieldRequired = pdTRUE;
 1210              		.loc 1 1699 0
 1211 005a 0123     		movs	r3, #1
 1212 005c FB61     		str	r3, [r7, #28]
 1213              	.L84:
1700:../src/RTOS/tasks.c **** 					}
1701:../src/RTOS/tasks.c **** 					else
1702:../src/RTOS/tasks.c **** 					{
1703:../src/RTOS/tasks.c **** 						mtCOVERAGE_TEST_MARKER();
1704:../src/RTOS/tasks.c **** 					}
1705:../src/RTOS/tasks.c **** 
1706:../src/RTOS/tasks.c **** 					( void ) uxListRemove( &( pxTCB->xStateListItem ) );
 1214              		.loc 1 1706 0
 1215 005e BB69     		ldr	r3, [r7, #24]
 1216 0060 0433     		adds	r3, r3, #4
 1217 0062 1846     		mov	r0, r3
 1218 0064 FFF7FEFF 		bl	uxListRemove
1707:../src/RTOS/tasks.c **** 					prvAddTaskToReadyList( pxTCB );
 1219              		.loc 1 1707 0
 1220 0068 BB69     		ldr	r3, [r7, #24]
 1221 006a DA6A     		ldr	r2, [r3, #44]
 1222 006c 154B     		ldr	r3, .L88+8
 1223 006e 1B68     		ldr	r3, [r3]
 1224 0070 9A42     		cmp	r2, r3
 1225 0072 03D9     		bls	.L85
 1226              		.loc 1 1707 0 is_stmt 0 discriminator 1
 1227 0074 BB69     		ldr	r3, [r7, #24]
 1228 0076 DB6A     		ldr	r3, [r3, #44]
 1229 0078 124A     		ldr	r2, .L88+8
 1230 007a 1360     		str	r3, [r2]
 1231              	.L85:
 1232              		.loc 1 1707 0 discriminator 3
 1233 007c BB69     		ldr	r3, [r7, #24]
 1234 007e DA6A     		ldr	r2, [r3, #44]
 1235 0080 1346     		mov	r3, r2
 1236 0082 9B00     		lsls	r3, r3, #2
 1237 0084 1344     		add	r3, r3, r2
 1238 0086 9B00     		lsls	r3, r3, #2
 1239 0088 0F4A     		ldr	r2, .L88+12
 1240 008a 1A44     		add	r2, r2, r3
 1241 008c BB69     		ldr	r3, [r7, #24]
 1242 008e 0433     		adds	r3, r3, #4
 1243 0090 1046     		mov	r0, r2
 1244 0092 1946     		mov	r1, r3
 1245 0094 FFF7FEFF 		bl	vListInsertEnd
 1246 0098 05E0     		b	.L82
 1247              	.L83:
1708:../src/RTOS/tasks.c **** 				}
1709:../src/RTOS/tasks.c **** 				else
1710:../src/RTOS/tasks.c **** 				{
1711:../src/RTOS/tasks.c **** 					/* The delayed or ready lists cannot be accessed so the task
1712:../src/RTOS/tasks.c **** 					is held in the pending ready list until the scheduler is
1713:../src/RTOS/tasks.c **** 					unsuspended. */
1714:../src/RTOS/tasks.c **** 					vListInsertEnd( &( xPendingReadyList ), &( pxTCB->xEventListItem ) );
 1248              		.loc 1 1714 0 is_stmt 1
 1249 009a BB69     		ldr	r3, [r7, #24]
 1250 009c 1833     		adds	r3, r3, #24
 1251 009e 0B48     		ldr	r0, .L88+16
 1252 00a0 1946     		mov	r1, r3
 1253 00a2 FFF7FEFF 		bl	vListInsertEnd
 1254              	.L82:
 1255 00a6 7B69     		ldr	r3, [r7, #20]
 1256 00a8 BB60     		str	r3, [r7, #8]
 1257              	.LBB22:
 1258              	.LBB23:
 266:U:/Thunderspace/EFM32LG330F128/RTOSincludes\portmacro.h **** }
 267:U:/Thunderspace/EFM32LG330F128/RTOSincludes\portmacro.h **** /*-----------------------------------------------------------*/
 268:U:/Thunderspace/EFM32LG330F128/RTOSincludes\portmacro.h **** 
 269:U:/Thunderspace/EFM32LG330F128/RTOSincludes\portmacro.h **** portFORCE_INLINE static void vPortSetBASEPRI( uint32_t ulNewMaskValue )
 270:U:/Thunderspace/EFM32LG330F128/RTOSincludes\portmacro.h **** {
 271:U:/Thunderspace/EFM32LG330F128/RTOSincludes\portmacro.h **** 	__asm volatile
 1259              		.loc 2 271 0
 1260 00aa BB68     		ldr	r3, [r7, #8]
 1261              	@ 271 "U:/Thunderspace/EFM32LG330F128/RTOSincludes/portmacro.h" 1
 1262 00ac 83F31188 			msr basepri, r3	
 1263              	@ 0 "" 2
 1264              		.thumb
 1265              	.LBE23:
 1266              	.LBE22:
1715:../src/RTOS/tasks.c **** 				}
1716:../src/RTOS/tasks.c **** 			}
1717:../src/RTOS/tasks.c **** 			else
1718:../src/RTOS/tasks.c **** 			{
1719:../src/RTOS/tasks.c **** 				mtCOVERAGE_TEST_MARKER();
1720:../src/RTOS/tasks.c **** 			}
1721:../src/RTOS/tasks.c **** 		}
1722:../src/RTOS/tasks.c **** 		portCLEAR_INTERRUPT_MASK_FROM_ISR( uxSavedInterruptStatus );
1723:../src/RTOS/tasks.c **** 
1724:../src/RTOS/tasks.c **** 		return xYieldRequired;
 1267              		.loc 1 1724 0
 1268 00b0 FB69     		ldr	r3, [r7, #28]
1725:../src/RTOS/tasks.c **** 	}
 1269              		.loc 1 1725 0
 1270 00b2 1846     		mov	r0, r3
 1271 00b4 2037     		adds	r7, r7, #32
 1272              		.cfi_def_cfa_offset 8
 1273 00b6 BD46     		mov	sp, r7
 1274              		.cfi_def_cfa_register 13
 1275              		@ sp needed
 1276 00b8 80BD     		pop	{r7, pc}
 1277              	.L89:
 1278 00ba 00BF     		.align	2
 1279              	.L88:
 1280 00bc 00000000 		.word	uxSchedulerSuspended
 1281 00c0 00000000 		.word	pxCurrentTCB
 1282 00c4 00000000 		.word	uxTopReadyPriority
 1283 00c8 00000000 		.word	pxReadyTasksLists
 1284 00cc 00000000 		.word	xPendingReadyList
 1285              		.cfi_endproc
 1286              	.LFE12:
 1288              		.section	.rodata
 1289              		.align	2
 1290              	.LC0:
 1291 0000 49444C45 		.ascii	"IDLE\000"
 1291      00
 1292 0005 000000   		.section	.text.vTaskStartScheduler,"ax",%progbits
 1293              		.align	2
 1294              		.global	vTaskStartScheduler
 1295              		.thumb
 1296              		.thumb_func
 1298              	vTaskStartScheduler:
 1299              	.LFB13:
1726:../src/RTOS/tasks.c **** 
1727:../src/RTOS/tasks.c **** #endif /* ( ( INCLUDE_xTaskResumeFromISR == 1 ) && ( INCLUDE_vTaskSuspend == 1 ) ) */
1728:../src/RTOS/tasks.c **** /*-----------------------------------------------------------*/
1729:../src/RTOS/tasks.c **** 
1730:../src/RTOS/tasks.c **** void vTaskStartScheduler( void )
1731:../src/RTOS/tasks.c **** {
 1300              		.loc 1 1731 0
 1301              		.cfi_startproc
 1302              		@ args = 0, pretend = 0, frame = 16
 1303              		@ frame_needed = 1, uses_anonymous_args = 0
 1304 0000 80B5     		push	{r7, lr}
 1305              		.cfi_def_cfa_offset 8
 1306              		.cfi_offset 7, -8
 1307              		.cfi_offset 14, -4
 1308 0002 86B0     		sub	sp, sp, #24
 1309              		.cfi_def_cfa_offset 32
 1310 0004 02AF     		add	r7, sp, #8
 1311              		.cfi_def_cfa 7, 24
1732:../src/RTOS/tasks.c **** BaseType_t xReturn;
1733:../src/RTOS/tasks.c **** uint16_t usIdleTaskStackSize = configMINIMAL_STACK_SIZE;
 1312              		.loc 1 1733 0
 1313 0006 8223     		movs	r3, #130
 1314 0008 FB81     		strh	r3, [r7, #14]	@ movhi
1734:../src/RTOS/tasks.c **** 
1735:../src/RTOS/tasks.c **** 	/* Add the idle task at the lowest priority. */
1736:../src/RTOS/tasks.c **** 	#if( configSUPPORT_STATIC_ALLOCATION == 1 )
1737:../src/RTOS/tasks.c **** 	{
1738:../src/RTOS/tasks.c **** 		StaticTask_t *pxIdleTaskTCBBuffer = NULL;
1739:../src/RTOS/tasks.c **** 		StackType_t *pxIdleTaskStackBuffer = NULL;
1740:../src/RTOS/tasks.c **** 
1741:../src/RTOS/tasks.c **** 		/* The Idle task is created using user provided RAM - obtain the
1742:../src/RTOS/tasks.c **** 		address of the RAM then create the idle task. */
1743:../src/RTOS/tasks.c **** 		vApplicationGetIdleTaskMemory( &pxIdleTaskTCBBuffer, &pxIdleTaskStackBuffer, &usIdleTaskStackSize
1744:../src/RTOS/tasks.c **** 		xReturn = xTaskCreateStatic( prvIdleTask, "IDLE", usIdleTaskStackSize, ( void * ) NULL, ( tskIDLE
1745:../src/RTOS/tasks.c **** 	}
1746:../src/RTOS/tasks.c **** 	#else
1747:../src/RTOS/tasks.c **** 	{
1748:../src/RTOS/tasks.c **** 		/* The Idle task is being created using dynamically allocated RAM. */
1749:../src/RTOS/tasks.c **** 		xReturn = xTaskCreate( prvIdleTask, "IDLE", usIdleTaskStackSize, ( void * ) NULL, ( tskIDLE_PRIOR
 1315              		.loc 1 1749 0
 1316 000a FA89     		ldrh	r2, [r7, #14]
 1317 000c 0023     		movs	r3, #0
 1318 000e 0093     		str	r3, [sp]
 1319 0010 134B     		ldr	r3, .L94
 1320 0012 0193     		str	r3, [sp, #4]
 1321 0014 1348     		ldr	r0, .L94+4
 1322 0016 1449     		ldr	r1, .L94+8
 1323 0018 0023     		movs	r3, #0
 1324 001a FFF7FEFF 		bl	xTaskCreate
 1325 001e B860     		str	r0, [r7, #8]
1750:../src/RTOS/tasks.c **** 	}
1751:../src/RTOS/tasks.c **** 	#endif /* configSUPPORT_STATIC_ALLOCATION */
1752:../src/RTOS/tasks.c **** 
1753:../src/RTOS/tasks.c **** 	#if ( configUSE_TIMERS == 1 )
1754:../src/RTOS/tasks.c **** 	{
1755:../src/RTOS/tasks.c **** 		if( xReturn == pdPASS )
1756:../src/RTOS/tasks.c **** 		{
1757:../src/RTOS/tasks.c **** 			xReturn = xTimerCreateTimerTask();
1758:../src/RTOS/tasks.c **** 		}
1759:../src/RTOS/tasks.c **** 		else
1760:../src/RTOS/tasks.c **** 		{
1761:../src/RTOS/tasks.c **** 			mtCOVERAGE_TEST_MARKER();
1762:../src/RTOS/tasks.c **** 		}
1763:../src/RTOS/tasks.c **** 	}
1764:../src/RTOS/tasks.c **** 	#endif /* configUSE_TIMERS */
1765:../src/RTOS/tasks.c **** 
1766:../src/RTOS/tasks.c **** 	if( xReturn == pdPASS )
 1326              		.loc 1 1766 0
 1327 0020 BB68     		ldr	r3, [r7, #8]
 1328 0022 012B     		cmp	r3, #1
 1329 0024 15D1     		bne	.L91
 1330              	.LBB24:
 1331              	.LBB25:
 237:U:/Thunderspace/EFM32LG330F128/RTOSincludes\portmacro.h **** 	(
 1332              		.loc 2 237 0
 1333              	@ 237 "U:/Thunderspace/EFM32LG330F128/RTOSincludes/portmacro.h" 1
 1334 0026 4FF0BF03 			mov r3, #191												
 1335 002a 83F31188 		msr basepri, r3											
 1336 002e BFF36F8F 		isb														
 1337 0032 BFF34F8F 		dsb														
 1338              	
 1339              	@ 0 "" 2
 1340              		.thumb
 1341 0036 7B60     		str	r3, [r7, #4]
 1342              	.LBE25:
 1343              	.LBE24:
1767:../src/RTOS/tasks.c **** 	{
1768:../src/RTOS/tasks.c **** 		/* Interrupts are turned off here, to ensure a tick does not occur
1769:../src/RTOS/tasks.c **** 		before or during the call to xPortStartScheduler().  The stacks of
1770:../src/RTOS/tasks.c **** 		the created tasks contain a status word with interrupts switched on
1771:../src/RTOS/tasks.c **** 		so interrupts will automatically get re-enabled when the first task
1772:../src/RTOS/tasks.c **** 		starts to run. */
1773:../src/RTOS/tasks.c **** 		portDISABLE_INTERRUPTS();
1774:../src/RTOS/tasks.c **** 
1775:../src/RTOS/tasks.c **** 		#if ( configUSE_NEWLIB_REENTRANT == 1 )
1776:../src/RTOS/tasks.c **** 		{
1777:../src/RTOS/tasks.c **** 			/* Switch Newlib's _impure_ptr variable to point to the _reent
1778:../src/RTOS/tasks.c **** 			structure specific to the task that will run first. */
1779:../src/RTOS/tasks.c **** 			_impure_ptr = &( pxCurrentTCB->xNewLib_reent );
1780:../src/RTOS/tasks.c **** 		}
1781:../src/RTOS/tasks.c **** 		#endif /* configUSE_NEWLIB_REENTRANT */
1782:../src/RTOS/tasks.c **** 
1783:../src/RTOS/tasks.c **** 		xNextTaskUnblockTime = portMAX_DELAY;
 1344              		.loc 1 1783 0
 1345 0038 0C4B     		ldr	r3, .L94+12
 1346 003a 4FF0FF32 		mov	r2, #-1
 1347 003e 1A60     		str	r2, [r3]
1784:../src/RTOS/tasks.c **** 		xSchedulerRunning = pdTRUE;
 1348              		.loc 1 1784 0
 1349 0040 0B4B     		ldr	r3, .L94+16
 1350 0042 0122     		movs	r2, #1
 1351 0044 1A60     		str	r2, [r3]
1785:../src/RTOS/tasks.c **** 		xTickCount = ( TickType_t ) 0U;
 1352              		.loc 1 1785 0
 1353 0046 0B4B     		ldr	r3, .L94+20
 1354 0048 0022     		movs	r2, #0
 1355 004a 1A60     		str	r2, [r3]
1786:../src/RTOS/tasks.c **** 
1787:../src/RTOS/tasks.c **** 		/* If configGENERATE_RUN_TIME_STATS is defined then the following
1788:../src/RTOS/tasks.c **** 		macro must be defined to configure the timer/counter used to generate
1789:../src/RTOS/tasks.c **** 		the run time counter time base. */
1790:../src/RTOS/tasks.c **** 		portCONFIGURE_TIMER_FOR_RUN_TIME_STATS();
1791:../src/RTOS/tasks.c **** 
1792:../src/RTOS/tasks.c **** 		/* Setting up the timer tick is hardware specific and thus in the
1793:../src/RTOS/tasks.c **** 		portable interface. */
1794:../src/RTOS/tasks.c **** 		if( xPortStartScheduler() != pdFALSE )
 1356              		.loc 1 1794 0
 1357 004c FFF7FEFF 		bl	xPortStartScheduler
 1358 0050 03E0     		b	.L90
 1359              	.L91:
1795:../src/RTOS/tasks.c **** 		{
1796:../src/RTOS/tasks.c **** 			/* Should not reach here as if the scheduler is running the
1797:../src/RTOS/tasks.c **** 			function will not return. */
1798:../src/RTOS/tasks.c **** 		}
1799:../src/RTOS/tasks.c **** 		else
1800:../src/RTOS/tasks.c **** 		{
1801:../src/RTOS/tasks.c **** 			/* Should only reach here if a task calls xTaskEndScheduler(). */
1802:../src/RTOS/tasks.c **** 		}
1803:../src/RTOS/tasks.c **** 	}
1804:../src/RTOS/tasks.c **** 	else
1805:../src/RTOS/tasks.c **** 	{
1806:../src/RTOS/tasks.c **** 		/* This line will only be reached if the kernel could not be started,
1807:../src/RTOS/tasks.c **** 		because there was not enough FreeRTOS heap to create the idle task
1808:../src/RTOS/tasks.c **** 		or the timer task. */
1809:../src/RTOS/tasks.c **** 		configASSERT( xReturn );
 1360              		.loc 1 1809 0
 1361 0052 BB68     		ldr	r3, [r7, #8]
 1362 0054 002B     		cmp	r3, #0
 1363 0056 00D1     		bne	.L90
 1364              	.L93:
 1365              		.loc 1 1809 0 is_stmt 0 discriminator 2
 1366 0058 FEE7     		b	.L93
 1367              	.L90:
1810:../src/RTOS/tasks.c **** 	}
1811:../src/RTOS/tasks.c **** 
1812:../src/RTOS/tasks.c **** 	/* Prevent compiler warnings if INCLUDE_xTaskGetIdleTaskHandle is set to 0,
1813:../src/RTOS/tasks.c **** 	meaning xIdleTaskHandle is not used anywhere else. */
1814:../src/RTOS/tasks.c **** 	( void ) xIdleTaskHandle;
1815:../src/RTOS/tasks.c **** }
 1368              		.loc 1 1815 0 is_stmt 1
 1369 005a 1037     		adds	r7, r7, #16
 1370              		.cfi_def_cfa_offset 8
 1371 005c BD46     		mov	sp, r7
 1372              		.cfi_def_cfa_register 13
 1373              		@ sp needed
 1374 005e 80BD     		pop	{r7, pc}
 1375              	.L95:
 1376              		.align	2
 1377              	.L94:
 1378 0060 00000000 		.word	xIdleTaskHandle
 1379 0064 00000000 		.word	prvIdleTask
 1380 0068 00000000 		.word	.LC0
 1381 006c 00000000 		.word	xNextTaskUnblockTime
 1382 0070 00000000 		.word	xSchedulerRunning
 1383 0074 00000000 		.word	xTickCount
 1384              		.cfi_endproc
 1385              	.LFE13:
 1387              		.section	.text.vTaskEndScheduler,"ax",%progbits
 1388              		.align	2
 1389              		.global	vTaskEndScheduler
 1390              		.thumb
 1391              		.thumb_func
 1393              	vTaskEndScheduler:
 1394              	.LFB14:
1816:../src/RTOS/tasks.c **** /*-----------------------------------------------------------*/
1817:../src/RTOS/tasks.c **** 
1818:../src/RTOS/tasks.c **** void vTaskEndScheduler( void )
1819:../src/RTOS/tasks.c **** {
 1395              		.loc 1 1819 0
 1396              		.cfi_startproc
 1397              		@ args = 0, pretend = 0, frame = 8
 1398              		@ frame_needed = 1, uses_anonymous_args = 0
 1399 0000 80B5     		push	{r7, lr}
 1400              		.cfi_def_cfa_offset 8
 1401              		.cfi_offset 7, -8
 1402              		.cfi_offset 14, -4
 1403 0002 82B0     		sub	sp, sp, #8
 1404              		.cfi_def_cfa_offset 16
 1405 0004 00AF     		add	r7, sp, #0
 1406              		.cfi_def_cfa_register 7
 1407              	.LBB26:
 1408              	.LBB27:
 237:U:/Thunderspace/EFM32LG330F128/RTOSincludes\portmacro.h **** 	(
 1409              		.loc 2 237 0
 1410              	@ 237 "U:/Thunderspace/EFM32LG330F128/RTOSincludes/portmacro.h" 1
 1411 0006 4FF0BF03 			mov r3, #191												
 1412 000a 83F31188 		msr basepri, r3											
 1413 000e BFF36F8F 		isb														
 1414 0012 BFF34F8F 		dsb														
 1415              	
 1416              	@ 0 "" 2
 1417              		.thumb
 1418 0016 7B60     		str	r3, [r7, #4]
 1419              	.LBE27:
 1420              	.LBE26:
1820:../src/RTOS/tasks.c **** 	/* Stop the scheduler interrupts and call the portable scheduler end
1821:../src/RTOS/tasks.c **** 	routine so the original ISRs can be restored if necessary.  The port
1822:../src/RTOS/tasks.c **** 	layer must ensure interrupts enable	bit is left in the correct state. */
1823:../src/RTOS/tasks.c **** 	portDISABLE_INTERRUPTS();
1824:../src/RTOS/tasks.c **** 	xSchedulerRunning = pdFALSE;
 1421              		.loc 1 1824 0
 1422 0018 034B     		ldr	r3, .L97
 1423 001a 0022     		movs	r2, #0
 1424 001c 1A60     		str	r2, [r3]
1825:../src/RTOS/tasks.c **** 	vPortEndScheduler();
 1425              		.loc 1 1825 0
 1426 001e FFF7FEFF 		bl	vPortEndScheduler
1826:../src/RTOS/tasks.c **** }
 1427              		.loc 1 1826 0
 1428 0022 0837     		adds	r7, r7, #8
 1429              		.cfi_def_cfa_offset 8
 1430 0024 BD46     		mov	sp, r7
 1431              		.cfi_def_cfa_register 13
 1432              		@ sp needed
 1433 0026 80BD     		pop	{r7, pc}
 1434              	.L98:
 1435              		.align	2
 1436              	.L97:
 1437 0028 00000000 		.word	xSchedulerRunning
 1438              		.cfi_endproc
 1439              	.LFE14:
 1441              		.section	.text.vTaskSuspendAll,"ax",%progbits
 1442              		.align	2
 1443              		.global	vTaskSuspendAll
 1444              		.thumb
 1445              		.thumb_func
 1447              	vTaskSuspendAll:
 1448              	.LFB15:
1827:../src/RTOS/tasks.c **** /*----------------------------------------------------------*/
1828:../src/RTOS/tasks.c **** 
1829:../src/RTOS/tasks.c **** void vTaskSuspendAll( void )
1830:../src/RTOS/tasks.c **** {
 1449              		.loc 1 1830 0
 1450              		.cfi_startproc
 1451              		@ args = 0, pretend = 0, frame = 0
 1452              		@ frame_needed = 1, uses_anonymous_args = 0
 1453              		@ link register save eliminated.
 1454 0000 80B4     		push	{r7}
 1455              		.cfi_def_cfa_offset 4
 1456              		.cfi_offset 7, -4
 1457 0002 00AF     		add	r7, sp, #0
 1458              		.cfi_def_cfa_register 7
1831:../src/RTOS/tasks.c **** 	/* A critical section is not required as the variable is of type
1832:../src/RTOS/tasks.c **** 	BaseType_t.  Please read Richard Barry's reply in the following link to a
1833:../src/RTOS/tasks.c **** 	post in the FreeRTOS support forum before reporting this as a bug! -
1834:../src/RTOS/tasks.c **** 	http://goo.gl/wu4acr */
1835:../src/RTOS/tasks.c **** 	++uxSchedulerSuspended;
 1459              		.loc 1 1835 0
 1460 0004 044B     		ldr	r3, .L100
 1461 0006 1B68     		ldr	r3, [r3]
 1462 0008 0133     		adds	r3, r3, #1
 1463 000a 034A     		ldr	r2, .L100
 1464 000c 1360     		str	r3, [r2]
1836:../src/RTOS/tasks.c **** }
 1465              		.loc 1 1836 0
 1466 000e BD46     		mov	sp, r7
 1467              		.cfi_def_cfa_register 13
 1468              		@ sp needed
 1469 0010 5DF8047B 		ldr	r7, [sp], #4
 1470              		.cfi_restore 7
 1471              		.cfi_def_cfa_offset 0
 1472 0014 7047     		bx	lr
 1473              	.L101:
 1474 0016 00BF     		.align	2
 1475              	.L100:
 1476 0018 00000000 		.word	uxSchedulerSuspended
 1477              		.cfi_endproc
 1478              	.LFE15:
 1480              		.section	.text.xTaskResumeAll,"ax",%progbits
 1481              		.align	2
 1482              		.global	xTaskResumeAll
 1483              		.thumb
 1484              		.thumb_func
 1486              	xTaskResumeAll:
 1487              	.LFB16:
1837:../src/RTOS/tasks.c **** /*----------------------------------------------------------*/
1838:../src/RTOS/tasks.c **** 
1839:../src/RTOS/tasks.c **** #if ( configUSE_TICKLESS_IDLE != 0 )
1840:../src/RTOS/tasks.c **** 
1841:../src/RTOS/tasks.c **** 	static TickType_t prvGetExpectedIdleTime( void )
1842:../src/RTOS/tasks.c **** 	{
1843:../src/RTOS/tasks.c **** 	TickType_t xReturn;
1844:../src/RTOS/tasks.c **** 	UBaseType_t uxHigherPriorityReadyTasks = pdFALSE;
1845:../src/RTOS/tasks.c **** 
1846:../src/RTOS/tasks.c **** 		/* uxHigherPriorityReadyTasks takes care of the case where
1847:../src/RTOS/tasks.c **** 		configUSE_PREEMPTION is 0, so there may be tasks above the idle priority
1848:../src/RTOS/tasks.c **** 		task that are in the Ready state, even though the idle task is
1849:../src/RTOS/tasks.c **** 		running. */
1850:../src/RTOS/tasks.c **** 		#if( configUSE_PORT_OPTIMISED_TASK_SELECTION == 0 )
1851:../src/RTOS/tasks.c **** 		{
1852:../src/RTOS/tasks.c **** 			if( uxTopReadyPriority > tskIDLE_PRIORITY )
1853:../src/RTOS/tasks.c **** 			{
1854:../src/RTOS/tasks.c **** 				uxHigherPriorityReadyTasks = pdTRUE;
1855:../src/RTOS/tasks.c **** 			}
1856:../src/RTOS/tasks.c **** 		}
1857:../src/RTOS/tasks.c **** 		#else
1858:../src/RTOS/tasks.c **** 		{
1859:../src/RTOS/tasks.c **** 			const UBaseType_t uxLeastSignificantBit = ( UBaseType_t ) 0x01;
1860:../src/RTOS/tasks.c **** 
1861:../src/RTOS/tasks.c **** 			/* When port optimised task selection is used the uxTopReadyPriority
1862:../src/RTOS/tasks.c **** 			variable is used as a bit map.  If bits other than the least
1863:../src/RTOS/tasks.c **** 			significant bit are set then there are tasks that have a priority
1864:../src/RTOS/tasks.c **** 			above the idle priority that are in the Ready state.  This takes
1865:../src/RTOS/tasks.c **** 			care of the case where the co-operative scheduler is in use. */
1866:../src/RTOS/tasks.c **** 			if( uxTopReadyPriority > uxLeastSignificantBit )
1867:../src/RTOS/tasks.c **** 			{
1868:../src/RTOS/tasks.c **** 				uxHigherPriorityReadyTasks = pdTRUE;
1869:../src/RTOS/tasks.c **** 			}
1870:../src/RTOS/tasks.c **** 		}
1871:../src/RTOS/tasks.c **** 		#endif
1872:../src/RTOS/tasks.c **** 
1873:../src/RTOS/tasks.c **** 		if( pxCurrentTCB->uxPriority > tskIDLE_PRIORITY )
1874:../src/RTOS/tasks.c **** 		{
1875:../src/RTOS/tasks.c **** 			xReturn = 0;
1876:../src/RTOS/tasks.c **** 		}
1877:../src/RTOS/tasks.c **** 		else if( listCURRENT_LIST_LENGTH( &( pxReadyTasksLists[ tskIDLE_PRIORITY ] ) ) > 1 )
1878:../src/RTOS/tasks.c **** 		{
1879:../src/RTOS/tasks.c **** 			/* There are other idle priority tasks in the ready state.  If
1880:../src/RTOS/tasks.c **** 			time slicing is used then the very next tick interrupt must be
1881:../src/RTOS/tasks.c **** 			processed. */
1882:../src/RTOS/tasks.c **** 			xReturn = 0;
1883:../src/RTOS/tasks.c **** 		}
1884:../src/RTOS/tasks.c **** 		else if( uxHigherPriorityReadyTasks != pdFALSE )
1885:../src/RTOS/tasks.c **** 		{
1886:../src/RTOS/tasks.c **** 			/* There are tasks in the Ready state that have a priority above the
1887:../src/RTOS/tasks.c **** 			idle priority.  This path can only be reached if
1888:../src/RTOS/tasks.c **** 			configUSE_PREEMPTION is 0. */
1889:../src/RTOS/tasks.c **** 			xReturn = 0;
1890:../src/RTOS/tasks.c **** 		}
1891:../src/RTOS/tasks.c **** 		else
1892:../src/RTOS/tasks.c **** 		{
1893:../src/RTOS/tasks.c **** 			xReturn = xNextTaskUnblockTime - xTickCount;
1894:../src/RTOS/tasks.c **** 		}
1895:../src/RTOS/tasks.c **** 
1896:../src/RTOS/tasks.c **** 		return xReturn;
1897:../src/RTOS/tasks.c **** 	}
1898:../src/RTOS/tasks.c **** 
1899:../src/RTOS/tasks.c **** #endif /* configUSE_TICKLESS_IDLE */
1900:../src/RTOS/tasks.c **** /*----------------------------------------------------------*/
1901:../src/RTOS/tasks.c **** 
1902:../src/RTOS/tasks.c **** BaseType_t xTaskResumeAll( void )
1903:../src/RTOS/tasks.c **** {
 1488              		.loc 1 1903 0
 1489              		.cfi_startproc
 1490              		@ args = 0, pretend = 0, frame = 16
 1491              		@ frame_needed = 1, uses_anonymous_args = 0
 1492 0000 80B5     		push	{r7, lr}
 1493              		.cfi_def_cfa_offset 8
 1494              		.cfi_offset 7, -8
 1495              		.cfi_offset 14, -4
 1496 0002 84B0     		sub	sp, sp, #16
 1497              		.cfi_def_cfa_offset 24
 1498 0004 00AF     		add	r7, sp, #0
 1499              		.cfi_def_cfa_register 7
1904:../src/RTOS/tasks.c **** TCB_t *pxTCB = NULL;
 1500              		.loc 1 1904 0
 1501 0006 0023     		movs	r3, #0
 1502 0008 FB60     		str	r3, [r7, #12]
1905:../src/RTOS/tasks.c **** BaseType_t xAlreadyYielded = pdFALSE;
 1503              		.loc 1 1905 0
 1504 000a 0023     		movs	r3, #0
 1505 000c BB60     		str	r3, [r7, #8]
1906:../src/RTOS/tasks.c **** 
1907:../src/RTOS/tasks.c **** 	/* If uxSchedulerSuspended is zero then this function does not match a
1908:../src/RTOS/tasks.c **** 	previous call to vTaskSuspendAll(). */
1909:../src/RTOS/tasks.c **** 	configASSERT( uxSchedulerSuspended );
 1506              		.loc 1 1909 0
 1507 000e 3D4B     		ldr	r3, .L114
 1508 0010 1B68     		ldr	r3, [r3]
 1509 0012 002B     		cmp	r3, #0
 1510 0014 00D1     		bne	.L103
 1511              	.L104:
 1512              		.loc 1 1909 0 is_stmt 0 discriminator 1
 1513 0016 FEE7     		b	.L104
 1514              	.L103:
1910:../src/RTOS/tasks.c **** 
1911:../src/RTOS/tasks.c **** 	/* It is possible that an ISR caused a task to be removed from an event
1912:../src/RTOS/tasks.c **** 	list while the scheduler was suspended.  If this was the case then the
1913:../src/RTOS/tasks.c **** 	removed task will have been added to the xPendingReadyList.  Once the
1914:../src/RTOS/tasks.c **** 	scheduler has been resumed it is safe to move all the pending ready
1915:../src/RTOS/tasks.c **** 	tasks from this list into their appropriate ready list. */
1916:../src/RTOS/tasks.c **** 	taskENTER_CRITICAL();
 1515              		.loc 1 1916 0 is_stmt 1
 1516 0018 FFF7FEFF 		bl	vPortEnterCritical
1917:../src/RTOS/tasks.c **** 	{
1918:../src/RTOS/tasks.c **** 		--uxSchedulerSuspended;
 1517              		.loc 1 1918 0
 1518 001c 394B     		ldr	r3, .L114
 1519 001e 1B68     		ldr	r3, [r3]
 1520 0020 013B     		subs	r3, r3, #1
 1521 0022 384A     		ldr	r2, .L114
 1522 0024 1360     		str	r3, [r2]
1919:../src/RTOS/tasks.c **** 
1920:../src/RTOS/tasks.c **** 		if( uxSchedulerSuspended == ( UBaseType_t ) pdFALSE )
 1523              		.loc 1 1920 0
 1524 0026 374B     		ldr	r3, .L114
 1525 0028 1B68     		ldr	r3, [r3]
 1526 002a 002B     		cmp	r3, #0
 1527 002c 62D1     		bne	.L105
1921:../src/RTOS/tasks.c **** 		{
1922:../src/RTOS/tasks.c **** 			if( uxCurrentNumberOfTasks > ( UBaseType_t ) 0U )
 1528              		.loc 1 1922 0
 1529 002e 364B     		ldr	r3, .L114+4
 1530 0030 1B68     		ldr	r3, [r3]
 1531 0032 002B     		cmp	r3, #0
 1532 0034 5ED0     		beq	.L105
1923:../src/RTOS/tasks.c **** 			{
1924:../src/RTOS/tasks.c **** 				/* Move any readied tasks from the pending list into the
1925:../src/RTOS/tasks.c **** 				appropriate ready list. */
1926:../src/RTOS/tasks.c **** 				while( listLIST_IS_EMPTY( &xPendingReadyList ) == pdFALSE )
 1533              		.loc 1 1926 0
 1534 0036 2FE0     		b	.L106
 1535              	.L108:
1927:../src/RTOS/tasks.c **** 				{
1928:../src/RTOS/tasks.c **** 					pxTCB = ( TCB_t * ) listGET_OWNER_OF_HEAD_ENTRY( ( &xPendingReadyList ) );
 1536              		.loc 1 1928 0
 1537 0038 344B     		ldr	r3, .L114+8
 1538 003a DB68     		ldr	r3, [r3, #12]
 1539 003c DB68     		ldr	r3, [r3, #12]
 1540 003e FB60     		str	r3, [r7, #12]
1929:../src/RTOS/tasks.c **** 					( void ) uxListRemove( &( pxTCB->xEventListItem ) );
 1541              		.loc 1 1929 0
 1542 0040 FB68     		ldr	r3, [r7, #12]
 1543 0042 1833     		adds	r3, r3, #24
 1544 0044 1846     		mov	r0, r3
 1545 0046 FFF7FEFF 		bl	uxListRemove
1930:../src/RTOS/tasks.c **** 					( void ) uxListRemove( &( pxTCB->xStateListItem ) );
 1546              		.loc 1 1930 0
 1547 004a FB68     		ldr	r3, [r7, #12]
 1548 004c 0433     		adds	r3, r3, #4
 1549 004e 1846     		mov	r0, r3
 1550 0050 FFF7FEFF 		bl	uxListRemove
1931:../src/RTOS/tasks.c **** 					prvAddTaskToReadyList( pxTCB );
 1551              		.loc 1 1931 0
 1552 0054 FB68     		ldr	r3, [r7, #12]
 1553 0056 DA6A     		ldr	r2, [r3, #44]
 1554 0058 2D4B     		ldr	r3, .L114+12
 1555 005a 1B68     		ldr	r3, [r3]
 1556 005c 9A42     		cmp	r2, r3
 1557 005e 03D9     		bls	.L107
 1558              		.loc 1 1931 0 is_stmt 0 discriminator 1
 1559 0060 FB68     		ldr	r3, [r7, #12]
 1560 0062 DB6A     		ldr	r3, [r3, #44]
 1561 0064 2A4A     		ldr	r2, .L114+12
 1562 0066 1360     		str	r3, [r2]
 1563              	.L107:
 1564              		.loc 1 1931 0 discriminator 3
 1565 0068 FB68     		ldr	r3, [r7, #12]
 1566 006a DA6A     		ldr	r2, [r3, #44]
 1567 006c 1346     		mov	r3, r2
 1568 006e 9B00     		lsls	r3, r3, #2
 1569 0070 1344     		add	r3, r3, r2
 1570 0072 9B00     		lsls	r3, r3, #2
 1571 0074 274A     		ldr	r2, .L114+16
 1572 0076 1A44     		add	r2, r2, r3
 1573 0078 FB68     		ldr	r3, [r7, #12]
 1574 007a 0433     		adds	r3, r3, #4
 1575 007c 1046     		mov	r0, r2
 1576 007e 1946     		mov	r1, r3
 1577 0080 FFF7FEFF 		bl	vListInsertEnd
1932:../src/RTOS/tasks.c **** 
1933:../src/RTOS/tasks.c **** 					/* If the moved task has a priority higher than the current
1934:../src/RTOS/tasks.c **** 					task then a yield must be performed. */
1935:../src/RTOS/tasks.c **** 					if( pxTCB->uxPriority >= pxCurrentTCB->uxPriority )
 1578              		.loc 1 1935 0 is_stmt 1 discriminator 3
 1579 0084 FB68     		ldr	r3, [r7, #12]
 1580 0086 DA6A     		ldr	r2, [r3, #44]
 1581 0088 234B     		ldr	r3, .L114+20
 1582 008a 1B68     		ldr	r3, [r3]
 1583 008c DB6A     		ldr	r3, [r3, #44]
 1584 008e 9A42     		cmp	r2, r3
 1585 0090 02D3     		bcc	.L106
1936:../src/RTOS/tasks.c **** 					{
1937:../src/RTOS/tasks.c **** 						xYieldPending = pdTRUE;
 1586              		.loc 1 1937 0
 1587 0092 224B     		ldr	r3, .L114+24
 1588 0094 0122     		movs	r2, #1
 1589 0096 1A60     		str	r2, [r3]
 1590              	.L106:
1926:../src/RTOS/tasks.c **** 				{
 1591              		.loc 1 1926 0
 1592 0098 1C4B     		ldr	r3, .L114+8
 1593 009a 1B68     		ldr	r3, [r3]
 1594 009c 002B     		cmp	r3, #0
 1595 009e CBD1     		bne	.L108
1938:../src/RTOS/tasks.c **** 					}
1939:../src/RTOS/tasks.c **** 					else
1940:../src/RTOS/tasks.c **** 					{
1941:../src/RTOS/tasks.c **** 						mtCOVERAGE_TEST_MARKER();
1942:../src/RTOS/tasks.c **** 					}
1943:../src/RTOS/tasks.c **** 				}
1944:../src/RTOS/tasks.c **** 
1945:../src/RTOS/tasks.c **** 				if( pxTCB != NULL )
 1596              		.loc 1 1945 0
 1597 00a0 FB68     		ldr	r3, [r7, #12]
 1598 00a2 002B     		cmp	r3, #0
 1599 00a4 01D0     		beq	.L109
1946:../src/RTOS/tasks.c **** 				{
1947:../src/RTOS/tasks.c **** 					/* A task was unblocked while the scheduler was suspended,
1948:../src/RTOS/tasks.c **** 					which may have prevented the next unblock time from being
1949:../src/RTOS/tasks.c **** 					re-calculated, in which case re-calculate it now.  Mainly
1950:../src/RTOS/tasks.c **** 					important for low power tickless implementations, where
1951:../src/RTOS/tasks.c **** 					this can prevent an unnecessary exit from low power
1952:../src/RTOS/tasks.c **** 					state. */
1953:../src/RTOS/tasks.c **** 					prvResetNextTaskUnblockTime();
 1600              		.loc 1 1953 0
 1601 00a6 FFF7FEFF 		bl	prvResetNextTaskUnblockTime
 1602              	.L109:
 1603              	.LBB28:
1954:../src/RTOS/tasks.c **** 				}
1955:../src/RTOS/tasks.c **** 
1956:../src/RTOS/tasks.c **** 				/* If any ticks occurred while the scheduler was suspended then
1957:../src/RTOS/tasks.c **** 				they should be processed now.  This ensures the tick count does
1958:../src/RTOS/tasks.c **** 				not	slip, and that any delayed tasks are resumed at the correct
1959:../src/RTOS/tasks.c **** 				time. */
1960:../src/RTOS/tasks.c **** 				{
1961:../src/RTOS/tasks.c **** 					UBaseType_t uxPendedCounts = uxPendedTicks; /* Non-volatile copy. */
 1604              		.loc 1 1961 0
 1605 00aa 1D4B     		ldr	r3, .L114+28
 1606 00ac 1B68     		ldr	r3, [r3]
 1607 00ae 7B60     		str	r3, [r7, #4]
1962:../src/RTOS/tasks.c **** 
1963:../src/RTOS/tasks.c **** 					if( uxPendedCounts > ( UBaseType_t ) 0U )
 1608              		.loc 1 1963 0
 1609 00b0 7B68     		ldr	r3, [r7, #4]
 1610 00b2 002B     		cmp	r3, #0
 1611 00b4 10D0     		beq	.L110
 1612              	.L112:
1964:../src/RTOS/tasks.c **** 					{
1965:../src/RTOS/tasks.c **** 						do
1966:../src/RTOS/tasks.c **** 						{
1967:../src/RTOS/tasks.c **** 							if( xTaskIncrementTick() != pdFALSE )
 1613              		.loc 1 1967 0
 1614 00b6 FFF7FEFF 		bl	xTaskIncrementTick
 1615 00ba 0346     		mov	r3, r0
 1616 00bc 002B     		cmp	r3, #0
 1617 00be 02D0     		beq	.L111
1968:../src/RTOS/tasks.c **** 							{
1969:../src/RTOS/tasks.c **** 								xYieldPending = pdTRUE;
 1618              		.loc 1 1969 0
 1619 00c0 164B     		ldr	r3, .L114+24
 1620 00c2 0122     		movs	r2, #1
 1621 00c4 1A60     		str	r2, [r3]
 1622              	.L111:
1970:../src/RTOS/tasks.c **** 							}
1971:../src/RTOS/tasks.c **** 							else
1972:../src/RTOS/tasks.c **** 							{
1973:../src/RTOS/tasks.c **** 								mtCOVERAGE_TEST_MARKER();
1974:../src/RTOS/tasks.c **** 							}
1975:../src/RTOS/tasks.c **** 							--uxPendedCounts;
 1623              		.loc 1 1975 0
 1624 00c6 7B68     		ldr	r3, [r7, #4]
 1625 00c8 013B     		subs	r3, r3, #1
 1626 00ca 7B60     		str	r3, [r7, #4]
1976:../src/RTOS/tasks.c **** 						} while( uxPendedCounts > ( UBaseType_t ) 0U );
 1627              		.loc 1 1976 0
 1628 00cc 7B68     		ldr	r3, [r7, #4]
 1629 00ce 002B     		cmp	r3, #0
 1630 00d0 F1D1     		bne	.L112
1977:../src/RTOS/tasks.c **** 
1978:../src/RTOS/tasks.c **** 						uxPendedTicks = 0;
 1631              		.loc 1 1978 0
 1632 00d2 134B     		ldr	r3, .L114+28
 1633 00d4 0022     		movs	r2, #0
 1634 00d6 1A60     		str	r2, [r3]
 1635              	.L110:
 1636              	.LBE28:
1979:../src/RTOS/tasks.c **** 					}
1980:../src/RTOS/tasks.c **** 					else
1981:../src/RTOS/tasks.c **** 					{
1982:../src/RTOS/tasks.c **** 						mtCOVERAGE_TEST_MARKER();
1983:../src/RTOS/tasks.c **** 					}
1984:../src/RTOS/tasks.c **** 				}
1985:../src/RTOS/tasks.c **** 
1986:../src/RTOS/tasks.c **** 				if( xYieldPending != pdFALSE )
 1637              		.loc 1 1986 0
 1638 00d8 104B     		ldr	r3, .L114+24
 1639 00da 1B68     		ldr	r3, [r3]
 1640 00dc 002B     		cmp	r3, #0
 1641 00de 09D0     		beq	.L105
1987:../src/RTOS/tasks.c **** 				{
1988:../src/RTOS/tasks.c **** 					#if( configUSE_PREEMPTION != 0 )
1989:../src/RTOS/tasks.c **** 					{
1990:../src/RTOS/tasks.c **** 						xAlreadyYielded = pdTRUE;
 1642              		.loc 1 1990 0
 1643 00e0 0123     		movs	r3, #1
 1644 00e2 BB60     		str	r3, [r7, #8]
1991:../src/RTOS/tasks.c **** 					}
1992:../src/RTOS/tasks.c **** 					#endif
1993:../src/RTOS/tasks.c **** 					taskYIELD_IF_USING_PREEMPTION();
 1645              		.loc 1 1993 0
 1646 00e4 0F4B     		ldr	r3, .L114+32
 1647 00e6 4FF08052 		mov	r2, #268435456
 1648 00ea 1A60     		str	r2, [r3]
 1649              	@ 1993 "../src/RTOS/tasks.c" 1
 1650 00ec BFF34F8F 		dsb
 1651              	@ 0 "" 2
 1652              	@ 1993 "../src/RTOS/tasks.c" 1
 1653 00f0 BFF36F8F 		isb
 1654              	@ 0 "" 2
 1655              		.thumb
 1656              	.L105:
1994:../src/RTOS/tasks.c **** 				}
1995:../src/RTOS/tasks.c **** 				else
1996:../src/RTOS/tasks.c **** 				{
1997:../src/RTOS/tasks.c **** 					mtCOVERAGE_TEST_MARKER();
1998:../src/RTOS/tasks.c **** 				}
1999:../src/RTOS/tasks.c **** 			}
2000:../src/RTOS/tasks.c **** 		}
2001:../src/RTOS/tasks.c **** 		else
2002:../src/RTOS/tasks.c **** 		{
2003:../src/RTOS/tasks.c **** 			mtCOVERAGE_TEST_MARKER();
2004:../src/RTOS/tasks.c **** 		}
2005:../src/RTOS/tasks.c **** 	}
2006:../src/RTOS/tasks.c **** 	taskEXIT_CRITICAL();
 1657              		.loc 1 2006 0
 1658 00f4 FFF7FEFF 		bl	vPortExitCritical
2007:../src/RTOS/tasks.c **** 
2008:../src/RTOS/tasks.c **** 	return xAlreadyYielded;
 1659              		.loc 1 2008 0
 1660 00f8 BB68     		ldr	r3, [r7, #8]
2009:../src/RTOS/tasks.c **** }
 1661              		.loc 1 2009 0
 1662 00fa 1846     		mov	r0, r3
 1663 00fc 1037     		adds	r7, r7, #16
 1664              		.cfi_def_cfa_offset 8
 1665 00fe BD46     		mov	sp, r7
 1666              		.cfi_def_cfa_register 13
 1667              		@ sp needed
 1668 0100 80BD     		pop	{r7, pc}
 1669              	.L115:
 1670 0102 00BF     		.align	2
 1671              	.L114:
 1672 0104 00000000 		.word	uxSchedulerSuspended
 1673 0108 00000000 		.word	uxCurrentNumberOfTasks
 1674 010c 00000000 		.word	xPendingReadyList
 1675 0110 00000000 		.word	uxTopReadyPriority
 1676 0114 00000000 		.word	pxReadyTasksLists
 1677 0118 00000000 		.word	pxCurrentTCB
 1678 011c 00000000 		.word	xYieldPending
 1679 0120 00000000 		.word	uxPendedTicks
 1680 0124 04ED00E0 		.word	-536810236
 1681              		.cfi_endproc
 1682              	.LFE16:
 1684              		.section	.text.xTaskGetTickCount,"ax",%progbits
 1685              		.align	2
 1686              		.global	xTaskGetTickCount
 1687              		.thumb
 1688              		.thumb_func
 1690              	xTaskGetTickCount:
 1691              	.LFB17:
2010:../src/RTOS/tasks.c **** /*-----------------------------------------------------------*/
2011:../src/RTOS/tasks.c **** 
2012:../src/RTOS/tasks.c **** TickType_t xTaskGetTickCount( void )
2013:../src/RTOS/tasks.c **** {
 1692              		.loc 1 2013 0
 1693              		.cfi_startproc
 1694              		@ args = 0, pretend = 0, frame = 8
 1695              		@ frame_needed = 1, uses_anonymous_args = 0
 1696              		@ link register save eliminated.
 1697 0000 80B4     		push	{r7}
 1698              		.cfi_def_cfa_offset 4
 1699              		.cfi_offset 7, -4
 1700 0002 83B0     		sub	sp, sp, #12
 1701              		.cfi_def_cfa_offset 16
 1702 0004 00AF     		add	r7, sp, #0
 1703              		.cfi_def_cfa_register 7
2014:../src/RTOS/tasks.c **** TickType_t xTicks;
2015:../src/RTOS/tasks.c **** 
2016:../src/RTOS/tasks.c **** 	/* Critical section required if running on a 16 bit processor. */
2017:../src/RTOS/tasks.c **** 	portTICK_TYPE_ENTER_CRITICAL();
2018:../src/RTOS/tasks.c **** 	{
2019:../src/RTOS/tasks.c **** 		xTicks = xTickCount;
 1704              		.loc 1 2019 0
 1705 0006 054B     		ldr	r3, .L118
 1706 0008 1B68     		ldr	r3, [r3]
 1707 000a 7B60     		str	r3, [r7, #4]
2020:../src/RTOS/tasks.c **** 	}
2021:../src/RTOS/tasks.c **** 	portTICK_TYPE_EXIT_CRITICAL();
2022:../src/RTOS/tasks.c **** 
2023:../src/RTOS/tasks.c **** 	return xTicks;
 1708              		.loc 1 2023 0
 1709 000c 7B68     		ldr	r3, [r7, #4]
2024:../src/RTOS/tasks.c **** }
 1710              		.loc 1 2024 0
 1711 000e 1846     		mov	r0, r3
 1712 0010 0C37     		adds	r7, r7, #12
 1713              		.cfi_def_cfa_offset 4
 1714 0012 BD46     		mov	sp, r7
 1715              		.cfi_def_cfa_register 13
 1716              		@ sp needed
 1717 0014 5DF8047B 		ldr	r7, [sp], #4
 1718              		.cfi_restore 7
 1719              		.cfi_def_cfa_offset 0
 1720 0018 7047     		bx	lr
 1721              	.L119:
 1722 001a 00BF     		.align	2
 1723              	.L118:
 1724 001c 00000000 		.word	xTickCount
 1725              		.cfi_endproc
 1726              	.LFE17:
 1728              		.section	.text.xTaskGetTickCountFromISR,"ax",%progbits
 1729              		.align	2
 1730              		.global	xTaskGetTickCountFromISR
 1731              		.thumb
 1732              		.thumb_func
 1734              	xTaskGetTickCountFromISR:
 1735              	.LFB18:
2025:../src/RTOS/tasks.c **** /*-----------------------------------------------------------*/
2026:../src/RTOS/tasks.c **** 
2027:../src/RTOS/tasks.c **** TickType_t xTaskGetTickCountFromISR( void )
2028:../src/RTOS/tasks.c **** {
 1736              		.loc 1 2028 0
 1737              		.cfi_startproc
 1738              		@ args = 0, pretend = 0, frame = 8
 1739              		@ frame_needed = 1, uses_anonymous_args = 0
 1740 0000 80B5     		push	{r7, lr}
 1741              		.cfi_def_cfa_offset 8
 1742              		.cfi_offset 7, -8
 1743              		.cfi_offset 14, -4
 1744 0002 82B0     		sub	sp, sp, #8
 1745              		.cfi_def_cfa_offset 16
 1746 0004 00AF     		add	r7, sp, #0
 1747              		.cfi_def_cfa_register 7
2029:../src/RTOS/tasks.c **** TickType_t xReturn;
2030:../src/RTOS/tasks.c **** UBaseType_t uxSavedInterruptStatus;
2031:../src/RTOS/tasks.c **** 
2032:../src/RTOS/tasks.c **** 	/* RTOS ports that support interrupt nesting have the concept of a maximum
2033:../src/RTOS/tasks.c **** 	system call (or maximum API call) interrupt priority.  Interrupts that are
2034:../src/RTOS/tasks.c **** 	above the maximum system call priority are kept permanently enabled, even
2035:../src/RTOS/tasks.c **** 	when the RTOS kernel is in a critical section, but cannot make any calls to
2036:../src/RTOS/tasks.c **** 	FreeRTOS API functions.  If configASSERT() is defined in FreeRTOSConfig.h
2037:../src/RTOS/tasks.c **** 	then portASSERT_IF_INTERRUPT_PRIORITY_INVALID() will result in an assertion
2038:../src/RTOS/tasks.c **** 	failure if a FreeRTOS API function is called from an interrupt that has been
2039:../src/RTOS/tasks.c **** 	assigned a priority above the configured maximum system call priority.
2040:../src/RTOS/tasks.c **** 	Only FreeRTOS functions that end in FromISR can be called from interrupts
2041:../src/RTOS/tasks.c **** 	that have been assigned a priority at or (logically) below the maximum
2042:../src/RTOS/tasks.c **** 	system call	interrupt priority.  FreeRTOS maintains a separate interrupt
2043:../src/RTOS/tasks.c **** 	safe API to ensure interrupt entry is as fast and as simple as possible.
2044:../src/RTOS/tasks.c **** 	More information (albeit Cortex-M specific) is provided on the following
2045:../src/RTOS/tasks.c **** 	link: http://www.freertos.org/RTOS-Cortex-M3-M4.html */
2046:../src/RTOS/tasks.c **** 	portASSERT_IF_INTERRUPT_PRIORITY_INVALID();
 1748              		.loc 1 2046 0
 1749 0006 FFF7FEFF 		bl	vPortValidateInterruptPriority
2047:../src/RTOS/tasks.c **** 
2048:../src/RTOS/tasks.c **** 	uxSavedInterruptStatus = portTICK_TYPE_SET_INTERRUPT_MASK_FROM_ISR();
 1750              		.loc 1 2048 0
 1751 000a 0023     		movs	r3, #0
 1752 000c 7B60     		str	r3, [r7, #4]
2049:../src/RTOS/tasks.c **** 	{
2050:../src/RTOS/tasks.c **** 		xReturn = xTickCount;
 1753              		.loc 1 2050 0
 1754 000e 044B     		ldr	r3, .L122
 1755 0010 1B68     		ldr	r3, [r3]
 1756 0012 3B60     		str	r3, [r7]
2051:../src/RTOS/tasks.c **** 	}
2052:../src/RTOS/tasks.c **** 	portTICK_TYPE_CLEAR_INTERRUPT_MASK_FROM_ISR( uxSavedInterruptStatus );
2053:../src/RTOS/tasks.c **** 
2054:../src/RTOS/tasks.c **** 	return xReturn;
 1757              		.loc 1 2054 0
 1758 0014 3B68     		ldr	r3, [r7]
2055:../src/RTOS/tasks.c **** }
 1759              		.loc 1 2055 0
 1760 0016 1846     		mov	r0, r3
 1761 0018 0837     		adds	r7, r7, #8
 1762              		.cfi_def_cfa_offset 8
 1763 001a BD46     		mov	sp, r7
 1764              		.cfi_def_cfa_register 13
 1765              		@ sp needed
 1766 001c 80BD     		pop	{r7, pc}
 1767              	.L123:
 1768 001e 00BF     		.align	2
 1769              	.L122:
 1770 0020 00000000 		.word	xTickCount
 1771              		.cfi_endproc
 1772              	.LFE18:
 1774              		.section	.text.uxTaskGetNumberOfTasks,"ax",%progbits
 1775              		.align	2
 1776              		.global	uxTaskGetNumberOfTasks
 1777              		.thumb
 1778              		.thumb_func
 1780              	uxTaskGetNumberOfTasks:
 1781              	.LFB19:
2056:../src/RTOS/tasks.c **** /*-----------------------------------------------------------*/
2057:../src/RTOS/tasks.c **** 
2058:../src/RTOS/tasks.c **** UBaseType_t uxTaskGetNumberOfTasks( void )
2059:../src/RTOS/tasks.c **** {
 1782              		.loc 1 2059 0
 1783              		.cfi_startproc
 1784              		@ args = 0, pretend = 0, frame = 0
 1785              		@ frame_needed = 1, uses_anonymous_args = 0
 1786              		@ link register save eliminated.
 1787 0000 80B4     		push	{r7}
 1788              		.cfi_def_cfa_offset 4
 1789              		.cfi_offset 7, -4
 1790 0002 00AF     		add	r7, sp, #0
 1791              		.cfi_def_cfa_register 7
2060:../src/RTOS/tasks.c **** 	/* A critical section is not required because the variables are of type
2061:../src/RTOS/tasks.c **** 	BaseType_t. */
2062:../src/RTOS/tasks.c **** 	return uxCurrentNumberOfTasks;
 1792              		.loc 1 2062 0
 1793 0004 034B     		ldr	r3, .L126
 1794 0006 1B68     		ldr	r3, [r3]
2063:../src/RTOS/tasks.c **** }
 1795              		.loc 1 2063 0
 1796 0008 1846     		mov	r0, r3
 1797 000a BD46     		mov	sp, r7
 1798              		.cfi_def_cfa_register 13
 1799              		@ sp needed
 1800 000c 5DF8047B 		ldr	r7, [sp], #4
 1801              		.cfi_restore 7
 1802              		.cfi_def_cfa_offset 0
 1803 0010 7047     		bx	lr
 1804              	.L127:
 1805 0012 00BF     		.align	2
 1806              	.L126:
 1807 0014 00000000 		.word	uxCurrentNumberOfTasks
 1808              		.cfi_endproc
 1809              	.LFE19:
 1811              		.section	.text.pcTaskGetName,"ax",%progbits
 1812              		.align	2
 1813              		.global	pcTaskGetName
 1814              		.thumb
 1815              		.thumb_func
 1817              	pcTaskGetName:
 1818              	.LFB20:
2064:../src/RTOS/tasks.c **** /*-----------------------------------------------------------*/
2065:../src/RTOS/tasks.c **** 
2066:../src/RTOS/tasks.c **** char *pcTaskGetName( TaskHandle_t xTaskToQuery ) /*lint !e971 Unqualified char types are allowed fo
2067:../src/RTOS/tasks.c **** {
 1819              		.loc 1 2067 0
 1820              		.cfi_startproc
 1821              		@ args = 0, pretend = 0, frame = 16
 1822              		@ frame_needed = 1, uses_anonymous_args = 0
 1823              		@ link register save eliminated.
 1824 0000 80B4     		push	{r7}
 1825              		.cfi_def_cfa_offset 4
 1826              		.cfi_offset 7, -4
 1827 0002 85B0     		sub	sp, sp, #20
 1828              		.cfi_def_cfa_offset 24
 1829 0004 00AF     		add	r7, sp, #0
 1830              		.cfi_def_cfa_register 7
 1831 0006 7860     		str	r0, [r7, #4]
2068:../src/RTOS/tasks.c **** TCB_t *pxTCB;
2069:../src/RTOS/tasks.c **** 
2070:../src/RTOS/tasks.c **** 	/* If null is passed in here then the name of the calling task is being
2071:../src/RTOS/tasks.c **** 	queried. */
2072:../src/RTOS/tasks.c **** 	pxTCB = prvGetTCBFromHandle( xTaskToQuery );
 1832              		.loc 1 2072 0
 1833 0008 7B68     		ldr	r3, [r7, #4]
 1834 000a 002B     		cmp	r3, #0
 1835 000c 02D1     		bne	.L129
 1836              		.loc 1 2072 0 is_stmt 0 discriminator 1
 1837 000e 084B     		ldr	r3, .L134
 1838 0010 1B68     		ldr	r3, [r3]
 1839 0012 00E0     		b	.L130
 1840              	.L129:
 1841              		.loc 1 2072 0 discriminator 2
 1842 0014 7B68     		ldr	r3, [r7, #4]
 1843              	.L130:
 1844              		.loc 1 2072 0 discriminator 4
 1845 0016 FB60     		str	r3, [r7, #12]
2073:../src/RTOS/tasks.c **** 	configASSERT( pxTCB );
 1846              		.loc 1 2073 0 is_stmt 1 discriminator 4
 1847 0018 FB68     		ldr	r3, [r7, #12]
 1848 001a 002B     		cmp	r3, #0
 1849 001c 00D1     		bne	.L131
 1850              	.L132:
 1851              		.loc 1 2073 0 is_stmt 0 discriminator 1
 1852 001e FEE7     		b	.L132
 1853              	.L131:
2074:../src/RTOS/tasks.c **** 	return &( pxTCB->pcTaskName[ 0 ] );
 1854              		.loc 1 2074 0 is_stmt 1
 1855 0020 FB68     		ldr	r3, [r7, #12]
 1856 0022 3433     		adds	r3, r3, #52
2075:../src/RTOS/tasks.c **** }
 1857              		.loc 1 2075 0
 1858 0024 1846     		mov	r0, r3
 1859 0026 1437     		adds	r7, r7, #20
 1860              		.cfi_def_cfa_offset 4
 1861 0028 BD46     		mov	sp, r7
 1862              		.cfi_def_cfa_register 13
 1863              		@ sp needed
 1864 002a 5DF8047B 		ldr	r7, [sp], #4
 1865              		.cfi_restore 7
 1866              		.cfi_def_cfa_offset 0
 1867 002e 7047     		bx	lr
 1868              	.L135:
 1869              		.align	2
 1870              	.L134:
 1871 0030 00000000 		.word	pxCurrentTCB
 1872              		.cfi_endproc
 1873              	.LFE20:
 1875              		.section	.text.xTaskIncrementTick,"ax",%progbits
 1876              		.align	2
 1877              		.global	xTaskIncrementTick
 1878              		.thumb
 1879              		.thumb_func
 1881              	xTaskIncrementTick:
 1882              	.LFB21:
2076:../src/RTOS/tasks.c **** /*-----------------------------------------------------------*/
2077:../src/RTOS/tasks.c **** 
2078:../src/RTOS/tasks.c **** #if ( INCLUDE_xTaskGetTaskHandle == 1 )
2079:../src/RTOS/tasks.c **** 
2080:../src/RTOS/tasks.c **** 	static TCB_t *prvSearchForNameWithinSingleList( List_t *pxList, const char pcNameToQuery[] )
2081:../src/RTOS/tasks.c **** 	{
2082:../src/RTOS/tasks.c **** 	TCB_t *pxNextTCB, *pxFirstTCB, *pxReturn = NULL;
2083:../src/RTOS/tasks.c **** 	UBaseType_t x;
2084:../src/RTOS/tasks.c **** 	char cNextChar;
2085:../src/RTOS/tasks.c **** 
2086:../src/RTOS/tasks.c **** 		/* This function is called with the scheduler suspended. */
2087:../src/RTOS/tasks.c **** 
2088:../src/RTOS/tasks.c **** 		if( listCURRENT_LIST_LENGTH( pxList ) > ( UBaseType_t ) 0 )
2089:../src/RTOS/tasks.c **** 		{
2090:../src/RTOS/tasks.c **** 			listGET_OWNER_OF_NEXT_ENTRY( pxFirstTCB, pxList );
2091:../src/RTOS/tasks.c **** 
2092:../src/RTOS/tasks.c **** 			do
2093:../src/RTOS/tasks.c **** 			{
2094:../src/RTOS/tasks.c **** 				listGET_OWNER_OF_NEXT_ENTRY( pxNextTCB, pxList );
2095:../src/RTOS/tasks.c **** 
2096:../src/RTOS/tasks.c **** 				/* Check each character in the name looking for a match or
2097:../src/RTOS/tasks.c **** 				mismatch. */
2098:../src/RTOS/tasks.c **** 				for( x = ( UBaseType_t ) 0; x < ( UBaseType_t ) configMAX_TASK_NAME_LEN; x++ )
2099:../src/RTOS/tasks.c **** 				{
2100:../src/RTOS/tasks.c **** 					cNextChar = pxNextTCB->pcTaskName[ x ];
2101:../src/RTOS/tasks.c **** 
2102:../src/RTOS/tasks.c **** 					if( cNextChar != pcNameToQuery[ x ] )
2103:../src/RTOS/tasks.c **** 					{
2104:../src/RTOS/tasks.c **** 						/* Characters didn't match. */
2105:../src/RTOS/tasks.c **** 						break;
2106:../src/RTOS/tasks.c **** 					}
2107:../src/RTOS/tasks.c **** 					else if( cNextChar == 0x00 )
2108:../src/RTOS/tasks.c **** 					{
2109:../src/RTOS/tasks.c **** 						/* Both strings terminated, a match must have been
2110:../src/RTOS/tasks.c **** 						found. */
2111:../src/RTOS/tasks.c **** 						pxReturn = pxNextTCB;
2112:../src/RTOS/tasks.c **** 						break;
2113:../src/RTOS/tasks.c **** 					}
2114:../src/RTOS/tasks.c **** 					else
2115:../src/RTOS/tasks.c **** 					{
2116:../src/RTOS/tasks.c **** 						mtCOVERAGE_TEST_MARKER();
2117:../src/RTOS/tasks.c **** 					}
2118:../src/RTOS/tasks.c **** 				}
2119:../src/RTOS/tasks.c **** 
2120:../src/RTOS/tasks.c **** 				if( pxReturn != NULL )
2121:../src/RTOS/tasks.c **** 				{
2122:../src/RTOS/tasks.c **** 					/* The handle has been found. */
2123:../src/RTOS/tasks.c **** 					break;
2124:../src/RTOS/tasks.c **** 				}
2125:../src/RTOS/tasks.c **** 
2126:../src/RTOS/tasks.c **** 			} while( pxNextTCB != pxFirstTCB );
2127:../src/RTOS/tasks.c **** 		}
2128:../src/RTOS/tasks.c **** 		else
2129:../src/RTOS/tasks.c **** 		{
2130:../src/RTOS/tasks.c **** 			mtCOVERAGE_TEST_MARKER();
2131:../src/RTOS/tasks.c **** 		}
2132:../src/RTOS/tasks.c **** 
2133:../src/RTOS/tasks.c **** 		return pxReturn;
2134:../src/RTOS/tasks.c **** 	}
2135:../src/RTOS/tasks.c **** 
2136:../src/RTOS/tasks.c **** #endif /* INCLUDE_xTaskGetTaskHandle */
2137:../src/RTOS/tasks.c **** /*-----------------------------------------------------------*/
2138:../src/RTOS/tasks.c **** 
2139:../src/RTOS/tasks.c **** #if ( INCLUDE_xTaskGetTaskHandle == 1 )
2140:../src/RTOS/tasks.c **** 
2141:../src/RTOS/tasks.c **** 	TaskHandle_t xTaskGetTaskHandle( const char *pcNameToQuery ) /*lint !e971 Unqualified char types a
2142:../src/RTOS/tasks.c **** 	{
2143:../src/RTOS/tasks.c **** 	UBaseType_t uxQueue = configMAX_PRIORITIES;
2144:../src/RTOS/tasks.c **** 	TCB_t* pxTCB;
2145:../src/RTOS/tasks.c **** 
2146:../src/RTOS/tasks.c **** 		/* Task names will be truncated to configMAX_TASK_NAME_LEN - 1 bytes. */
2147:../src/RTOS/tasks.c **** 		configASSERT( strlen( pcNameToQuery ) < configMAX_TASK_NAME_LEN );
2148:../src/RTOS/tasks.c **** 
2149:../src/RTOS/tasks.c **** 		vTaskSuspendAll();
2150:../src/RTOS/tasks.c **** 		{
2151:../src/RTOS/tasks.c **** 			/* Search the ready lists. */
2152:../src/RTOS/tasks.c **** 			do
2153:../src/RTOS/tasks.c **** 			{
2154:../src/RTOS/tasks.c **** 				uxQueue--;
2155:../src/RTOS/tasks.c **** 				pxTCB = prvSearchForNameWithinSingleList( ( List_t * ) &( pxReadyTasksLists[ uxQueue ] ), pcNam
2156:../src/RTOS/tasks.c **** 
2157:../src/RTOS/tasks.c **** 				if( pxTCB != NULL )
2158:../src/RTOS/tasks.c **** 				{
2159:../src/RTOS/tasks.c **** 					/* Found the handle. */
2160:../src/RTOS/tasks.c **** 					break;
2161:../src/RTOS/tasks.c **** 				}
2162:../src/RTOS/tasks.c **** 
2163:../src/RTOS/tasks.c **** 			} while( uxQueue > ( UBaseType_t ) tskIDLE_PRIORITY ); /*lint !e961 MISRA exception as the casts
2164:../src/RTOS/tasks.c **** 
2165:../src/RTOS/tasks.c **** 			/* Search the delayed lists. */
2166:../src/RTOS/tasks.c **** 			if( pxTCB == NULL )
2167:../src/RTOS/tasks.c **** 			{
2168:../src/RTOS/tasks.c **** 				pxTCB = prvSearchForNameWithinSingleList( ( List_t * ) pxDelayedTaskList, pcNameToQuery );
2169:../src/RTOS/tasks.c **** 			}
2170:../src/RTOS/tasks.c **** 
2171:../src/RTOS/tasks.c **** 			if( pxTCB == NULL )
2172:../src/RTOS/tasks.c **** 			{
2173:../src/RTOS/tasks.c **** 				pxTCB = prvSearchForNameWithinSingleList( ( List_t * ) pxOverflowDelayedTaskList, pcNameToQuery
2174:../src/RTOS/tasks.c **** 			}
2175:../src/RTOS/tasks.c **** 
2176:../src/RTOS/tasks.c **** 			#if ( INCLUDE_vTaskSuspend == 1 )
2177:../src/RTOS/tasks.c **** 			{
2178:../src/RTOS/tasks.c **** 				if( pxTCB == NULL )
2179:../src/RTOS/tasks.c **** 				{
2180:../src/RTOS/tasks.c **** 					/* Search the suspended list. */
2181:../src/RTOS/tasks.c **** 					pxTCB = prvSearchForNameWithinSingleList( &xSuspendedTaskList, pcNameToQuery );
2182:../src/RTOS/tasks.c **** 				}
2183:../src/RTOS/tasks.c **** 			}
2184:../src/RTOS/tasks.c **** 			#endif
2185:../src/RTOS/tasks.c **** 
2186:../src/RTOS/tasks.c **** 			#if( INCLUDE_vTaskDelete == 1 )
2187:../src/RTOS/tasks.c **** 			{
2188:../src/RTOS/tasks.c **** 				if( pxTCB == NULL )
2189:../src/RTOS/tasks.c **** 				{
2190:../src/RTOS/tasks.c **** 					/* Search the deleted list. */
2191:../src/RTOS/tasks.c **** 					pxTCB = prvSearchForNameWithinSingleList( &xTasksWaitingTermination, pcNameToQuery );
2192:../src/RTOS/tasks.c **** 				}
2193:../src/RTOS/tasks.c **** 			}
2194:../src/RTOS/tasks.c **** 			#endif
2195:../src/RTOS/tasks.c **** 		}
2196:../src/RTOS/tasks.c **** 		( void ) xTaskResumeAll();
2197:../src/RTOS/tasks.c **** 
2198:../src/RTOS/tasks.c **** 		return ( TaskHandle_t ) pxTCB;
2199:../src/RTOS/tasks.c **** 	}
2200:../src/RTOS/tasks.c **** 
2201:../src/RTOS/tasks.c **** #endif /* INCLUDE_xTaskGetTaskHandle */
2202:../src/RTOS/tasks.c **** /*-----------------------------------------------------------*/
2203:../src/RTOS/tasks.c **** 
2204:../src/RTOS/tasks.c **** #if ( configUSE_TRACE_FACILITY == 1 )
2205:../src/RTOS/tasks.c **** 
2206:../src/RTOS/tasks.c **** 	UBaseType_t uxTaskGetSystemState( TaskStatus_t * const pxTaskStatusArray, const UBaseType_t uxArra
2207:../src/RTOS/tasks.c **** 	{
2208:../src/RTOS/tasks.c **** 	UBaseType_t uxTask = 0, uxQueue = configMAX_PRIORITIES;
2209:../src/RTOS/tasks.c **** 
2210:../src/RTOS/tasks.c **** 		vTaskSuspendAll();
2211:../src/RTOS/tasks.c **** 		{
2212:../src/RTOS/tasks.c **** 			/* Is there a space in the array for each task in the system? */
2213:../src/RTOS/tasks.c **** 			if( uxArraySize >= uxCurrentNumberOfTasks )
2214:../src/RTOS/tasks.c **** 			{
2215:../src/RTOS/tasks.c **** 				/* Fill in an TaskStatus_t structure with information on each
2216:../src/RTOS/tasks.c **** 				task in the Ready state. */
2217:../src/RTOS/tasks.c **** 				do
2218:../src/RTOS/tasks.c **** 				{
2219:../src/RTOS/tasks.c **** 					uxQueue--;
2220:../src/RTOS/tasks.c **** 					uxTask += prvListTasksWithinSingleList( &( pxTaskStatusArray[ uxTask ] ), &( pxReadyTasksLists
2221:../src/RTOS/tasks.c **** 
2222:../src/RTOS/tasks.c **** 				} while( uxQueue > ( UBaseType_t ) tskIDLE_PRIORITY ); /*lint !e961 MISRA exception as the cast
2223:../src/RTOS/tasks.c **** 
2224:../src/RTOS/tasks.c **** 				/* Fill in an TaskStatus_t structure with information on each
2225:../src/RTOS/tasks.c **** 				task in the Blocked state. */
2226:../src/RTOS/tasks.c **** 				uxTask += prvListTasksWithinSingleList( &( pxTaskStatusArray[ uxTask ] ), ( List_t * ) pxDelaye
2227:../src/RTOS/tasks.c **** 				uxTask += prvListTasksWithinSingleList( &( pxTaskStatusArray[ uxTask ] ), ( List_t * ) pxOverfl
2228:../src/RTOS/tasks.c **** 
2229:../src/RTOS/tasks.c **** 				#if( INCLUDE_vTaskDelete == 1 )
2230:../src/RTOS/tasks.c **** 				{
2231:../src/RTOS/tasks.c **** 					/* Fill in an TaskStatus_t structure with information on
2232:../src/RTOS/tasks.c **** 					each task that has been deleted but not yet cleaned up. */
2233:../src/RTOS/tasks.c **** 					uxTask += prvListTasksWithinSingleList( &( pxTaskStatusArray[ uxTask ] ), &xTasksWaitingTermin
2234:../src/RTOS/tasks.c **** 				}
2235:../src/RTOS/tasks.c **** 				#endif
2236:../src/RTOS/tasks.c **** 
2237:../src/RTOS/tasks.c **** 				#if ( INCLUDE_vTaskSuspend == 1 )
2238:../src/RTOS/tasks.c **** 				{
2239:../src/RTOS/tasks.c **** 					/* Fill in an TaskStatus_t structure with information on
2240:../src/RTOS/tasks.c **** 					each task in the Suspended state. */
2241:../src/RTOS/tasks.c **** 					uxTask += prvListTasksWithinSingleList( &( pxTaskStatusArray[ uxTask ] ), &xSuspendedTaskList,
2242:../src/RTOS/tasks.c **** 				}
2243:../src/RTOS/tasks.c **** 				#endif
2244:../src/RTOS/tasks.c **** 
2245:../src/RTOS/tasks.c **** 				#if ( configGENERATE_RUN_TIME_STATS == 1)
2246:../src/RTOS/tasks.c **** 				{
2247:../src/RTOS/tasks.c **** 					if( pulTotalRunTime != NULL )
2248:../src/RTOS/tasks.c **** 					{
2249:../src/RTOS/tasks.c **** 						#ifdef portALT_GET_RUN_TIME_COUNTER_VALUE
2250:../src/RTOS/tasks.c **** 							portALT_GET_RUN_TIME_COUNTER_VALUE( ( *pulTotalRunTime ) );
2251:../src/RTOS/tasks.c **** 						#else
2252:../src/RTOS/tasks.c **** 							*pulTotalRunTime = portGET_RUN_TIME_COUNTER_VALUE();
2253:../src/RTOS/tasks.c **** 						#endif
2254:../src/RTOS/tasks.c **** 					}
2255:../src/RTOS/tasks.c **** 				}
2256:../src/RTOS/tasks.c **** 				#else
2257:../src/RTOS/tasks.c **** 				{
2258:../src/RTOS/tasks.c **** 					if( pulTotalRunTime != NULL )
2259:../src/RTOS/tasks.c **** 					{
2260:../src/RTOS/tasks.c **** 						*pulTotalRunTime = 0;
2261:../src/RTOS/tasks.c **** 					}
2262:../src/RTOS/tasks.c **** 				}
2263:../src/RTOS/tasks.c **** 				#endif
2264:../src/RTOS/tasks.c **** 			}
2265:../src/RTOS/tasks.c **** 			else
2266:../src/RTOS/tasks.c **** 			{
2267:../src/RTOS/tasks.c **** 				mtCOVERAGE_TEST_MARKER();
2268:../src/RTOS/tasks.c **** 			}
2269:../src/RTOS/tasks.c **** 		}
2270:../src/RTOS/tasks.c **** 		( void ) xTaskResumeAll();
2271:../src/RTOS/tasks.c **** 
2272:../src/RTOS/tasks.c **** 		return uxTask;
2273:../src/RTOS/tasks.c **** 	}
2274:../src/RTOS/tasks.c **** 
2275:../src/RTOS/tasks.c **** #endif /* configUSE_TRACE_FACILITY */
2276:../src/RTOS/tasks.c **** /*----------------------------------------------------------*/
2277:../src/RTOS/tasks.c **** 
2278:../src/RTOS/tasks.c **** #if ( INCLUDE_xTaskGetIdleTaskHandle == 1 )
2279:../src/RTOS/tasks.c **** 
2280:../src/RTOS/tasks.c **** 	TaskHandle_t xTaskGetIdleTaskHandle( void )
2281:../src/RTOS/tasks.c **** 	{
2282:../src/RTOS/tasks.c **** 		/* If xTaskGetIdleTaskHandle() is called before the scheduler has been
2283:../src/RTOS/tasks.c **** 		started, then xIdleTaskHandle will be NULL. */
2284:../src/RTOS/tasks.c **** 		configASSERT( ( xIdleTaskHandle != NULL ) );
2285:../src/RTOS/tasks.c **** 		return xIdleTaskHandle;
2286:../src/RTOS/tasks.c **** 	}
2287:../src/RTOS/tasks.c **** 
2288:../src/RTOS/tasks.c **** #endif /* INCLUDE_xTaskGetIdleTaskHandle */
2289:../src/RTOS/tasks.c **** /*----------------------------------------------------------*/
2290:../src/RTOS/tasks.c **** 
2291:../src/RTOS/tasks.c **** /* This conditional compilation should use inequality to 0, not equality to 1.
2292:../src/RTOS/tasks.c **** This is to ensure vTaskStepTick() is available when user defined low power mode
2293:../src/RTOS/tasks.c **** implementations require configUSE_TICKLESS_IDLE to be set to a value other than
2294:../src/RTOS/tasks.c **** 1. */
2295:../src/RTOS/tasks.c **** #if ( configUSE_TICKLESS_IDLE != 0 )
2296:../src/RTOS/tasks.c **** 
2297:../src/RTOS/tasks.c **** 	void vTaskStepTick( const TickType_t xTicksToJump )
2298:../src/RTOS/tasks.c **** 	{
2299:../src/RTOS/tasks.c **** 		/* Correct the tick count value after a period during which the tick
2300:../src/RTOS/tasks.c **** 		was suppressed.  Note this does *not* call the tick hook function for
2301:../src/RTOS/tasks.c **** 		each stepped tick. */
2302:../src/RTOS/tasks.c **** 		configASSERT( ( xTickCount + xTicksToJump ) <= xNextTaskUnblockTime );
2303:../src/RTOS/tasks.c **** 		xTickCount += xTicksToJump;
2304:../src/RTOS/tasks.c **** 		traceINCREASE_TICK_COUNT( xTicksToJump );
2305:../src/RTOS/tasks.c **** 	}
2306:../src/RTOS/tasks.c **** 
2307:../src/RTOS/tasks.c **** #endif /* configUSE_TICKLESS_IDLE */
2308:../src/RTOS/tasks.c **** /*----------------------------------------------------------*/
2309:../src/RTOS/tasks.c **** 
2310:../src/RTOS/tasks.c **** #if ( INCLUDE_xTaskAbortDelay == 1 )
2311:../src/RTOS/tasks.c **** 
2312:../src/RTOS/tasks.c **** 	BaseType_t xTaskAbortDelay( TaskHandle_t xTask )
2313:../src/RTOS/tasks.c **** 	{
2314:../src/RTOS/tasks.c **** 	TCB_t *pxTCB = ( TCB_t * ) xTask;
2315:../src/RTOS/tasks.c **** 	BaseType_t xReturn = pdFALSE;
2316:../src/RTOS/tasks.c **** 
2317:../src/RTOS/tasks.c **** 		configASSERT( pxTCB );
2318:../src/RTOS/tasks.c **** 
2319:../src/RTOS/tasks.c **** 		vTaskSuspendAll();
2320:../src/RTOS/tasks.c **** 		{
2321:../src/RTOS/tasks.c **** 			/* A task can only be prematurely removed from the Blocked state if
2322:../src/RTOS/tasks.c **** 			it is actually in the Blocked state. */
2323:../src/RTOS/tasks.c **** 			if( eTaskGetState( xTask ) == eBlocked )
2324:../src/RTOS/tasks.c **** 			{
2325:../src/RTOS/tasks.c **** 				/* Remove the reference to the task from the blocked list.  An
2326:../src/RTOS/tasks.c **** 				interrupt won't touch the xStateListItem because the
2327:../src/RTOS/tasks.c **** 				scheduler is suspended. */
2328:../src/RTOS/tasks.c **** 				( void ) uxListRemove( &( pxTCB->xStateListItem ) );
2329:../src/RTOS/tasks.c **** 
2330:../src/RTOS/tasks.c **** 				/* Is the task waiting on an event also?  If so remove it from
2331:../src/RTOS/tasks.c **** 				the event list too.  Interrupts can touch the event list item,
2332:../src/RTOS/tasks.c **** 				even though the scheduler is suspended, so a critical section
2333:../src/RTOS/tasks.c **** 				is used. */
2334:../src/RTOS/tasks.c **** 				taskENTER_CRITICAL();
2335:../src/RTOS/tasks.c **** 				{
2336:../src/RTOS/tasks.c **** 					if( listLIST_ITEM_CONTAINER( &( pxTCB->xEventListItem ) ) != NULL )
2337:../src/RTOS/tasks.c **** 					{
2338:../src/RTOS/tasks.c **** 						( void ) uxListRemove( &( pxTCB->xEventListItem ) );
2339:../src/RTOS/tasks.c **** 						pxTCB->ucDelayAborted = pdTRUE;
2340:../src/RTOS/tasks.c **** 					}
2341:../src/RTOS/tasks.c **** 					else
2342:../src/RTOS/tasks.c **** 					{
2343:../src/RTOS/tasks.c **** 						mtCOVERAGE_TEST_MARKER();
2344:../src/RTOS/tasks.c **** 					}
2345:../src/RTOS/tasks.c **** 				}
2346:../src/RTOS/tasks.c **** 				taskEXIT_CRITICAL();
2347:../src/RTOS/tasks.c **** 
2348:../src/RTOS/tasks.c **** 				/* Place the unblocked task into the appropriate ready list. */
2349:../src/RTOS/tasks.c **** 				prvAddTaskToReadyList( pxTCB );
2350:../src/RTOS/tasks.c **** 
2351:../src/RTOS/tasks.c **** 				/* A task being unblocked cannot cause an immediate context
2352:../src/RTOS/tasks.c **** 				switch if preemption is turned off. */
2353:../src/RTOS/tasks.c **** 				#if (  configUSE_PREEMPTION == 1 )
2354:../src/RTOS/tasks.c **** 				{
2355:../src/RTOS/tasks.c **** 					/* Preemption is on, but a context switch should only be
2356:../src/RTOS/tasks.c **** 					performed if the unblocked task has a priority that is
2357:../src/RTOS/tasks.c **** 					equal to or higher than the currently executing task. */
2358:../src/RTOS/tasks.c **** 					if( pxTCB->uxPriority > pxCurrentTCB->uxPriority )
2359:../src/RTOS/tasks.c **** 					{
2360:../src/RTOS/tasks.c **** 						/* Pend the yield to be performed when the scheduler
2361:../src/RTOS/tasks.c **** 						is unsuspended. */
2362:../src/RTOS/tasks.c **** 						xYieldPending = pdTRUE;
2363:../src/RTOS/tasks.c **** 					}
2364:../src/RTOS/tasks.c **** 					else
2365:../src/RTOS/tasks.c **** 					{
2366:../src/RTOS/tasks.c **** 						mtCOVERAGE_TEST_MARKER();
2367:../src/RTOS/tasks.c **** 					}
2368:../src/RTOS/tasks.c **** 				}
2369:../src/RTOS/tasks.c **** 				#endif /* configUSE_PREEMPTION */
2370:../src/RTOS/tasks.c **** 			}
2371:../src/RTOS/tasks.c **** 			else
2372:../src/RTOS/tasks.c **** 			{
2373:../src/RTOS/tasks.c **** 				mtCOVERAGE_TEST_MARKER();
2374:../src/RTOS/tasks.c **** 			}
2375:../src/RTOS/tasks.c **** 		}
2376:../src/RTOS/tasks.c **** 		xTaskResumeAll();
2377:../src/RTOS/tasks.c **** 
2378:../src/RTOS/tasks.c **** 		return xReturn;
2379:../src/RTOS/tasks.c **** 	}
2380:../src/RTOS/tasks.c **** 
2381:../src/RTOS/tasks.c **** #endif /* INCLUDE_xTaskAbortDelay */
2382:../src/RTOS/tasks.c **** /*----------------------------------------------------------*/
2383:../src/RTOS/tasks.c **** 
2384:../src/RTOS/tasks.c **** BaseType_t xTaskIncrementTick( void )
2385:../src/RTOS/tasks.c **** {
 1883              		.loc 1 2385 0
 1884              		.cfi_startproc
 1885              		@ args = 0, pretend = 0, frame = 24
 1886              		@ frame_needed = 1, uses_anonymous_args = 0
 1887 0000 80B5     		push	{r7, lr}
 1888              		.cfi_def_cfa_offset 8
 1889              		.cfi_offset 7, -8
 1890              		.cfi_offset 14, -4
 1891 0002 86B0     		sub	sp, sp, #24
 1892              		.cfi_def_cfa_offset 32
 1893 0004 00AF     		add	r7, sp, #0
 1894              		.cfi_def_cfa_register 7
2386:../src/RTOS/tasks.c **** TCB_t * pxTCB;
2387:../src/RTOS/tasks.c **** TickType_t xItemValue;
2388:../src/RTOS/tasks.c **** BaseType_t xSwitchRequired = pdFALSE;
 1895              		.loc 1 2388 0
 1896 0006 0023     		movs	r3, #0
 1897 0008 7B61     		str	r3, [r7, #20]
2389:../src/RTOS/tasks.c **** 
2390:../src/RTOS/tasks.c **** 	/* Called by the portable layer each time a tick interrupt occurs.
2391:../src/RTOS/tasks.c **** 	Increments the tick then checks to see if the new tick value will cause any
2392:../src/RTOS/tasks.c **** 	tasks to be unblocked. */
2393:../src/RTOS/tasks.c **** 	traceTASK_INCREMENT_TICK( xTickCount );
2394:../src/RTOS/tasks.c **** 	if( uxSchedulerSuspended == ( UBaseType_t ) pdFALSE )
 1898              		.loc 1 2394 0
 1899 000a 454B     		ldr	r3, .L153
 1900 000c 1B68     		ldr	r3, [r3]
 1901 000e 002B     		cmp	r3, #0
 1902 0010 75D1     		bne	.L137
 1903              	.LBB29:
2395:../src/RTOS/tasks.c **** 	{
2396:../src/RTOS/tasks.c **** 		/* Minor optimisation.  The tick count cannot change in this
2397:../src/RTOS/tasks.c **** 		block. */
2398:../src/RTOS/tasks.c **** 		const TickType_t xConstTickCount = xTickCount + 1;
 1904              		.loc 1 2398 0
 1905 0012 444B     		ldr	r3, .L153+4
 1906 0014 1B68     		ldr	r3, [r3]
 1907 0016 0133     		adds	r3, r3, #1
 1908 0018 3B61     		str	r3, [r7, #16]
2399:../src/RTOS/tasks.c **** 
2400:../src/RTOS/tasks.c **** 		/* Increment the RTOS tick, switching the delayed and overflowed
2401:../src/RTOS/tasks.c **** 		delayed lists if it wraps to 0. */
2402:../src/RTOS/tasks.c **** 		xTickCount = xConstTickCount;
 1909              		.loc 1 2402 0
 1910 001a 424A     		ldr	r2, .L153+4
 1911 001c 3B69     		ldr	r3, [r7, #16]
 1912 001e 1360     		str	r3, [r2]
2403:../src/RTOS/tasks.c **** 
2404:../src/RTOS/tasks.c **** 		if( xConstTickCount == ( TickType_t ) 0U )
 1913              		.loc 1 2404 0
 1914 0020 3B69     		ldr	r3, [r7, #16]
 1915 0022 002B     		cmp	r3, #0
 1916 0024 16D1     		bne	.L138
 1917              	.LBB30:
2405:../src/RTOS/tasks.c **** 		{
2406:../src/RTOS/tasks.c **** 			taskSWITCH_DELAYED_LISTS();
 1918              		.loc 1 2406 0
 1919 0026 404B     		ldr	r3, .L153+8
 1920 0028 1B68     		ldr	r3, [r3]
 1921 002a 1B68     		ldr	r3, [r3]
 1922 002c 002B     		cmp	r3, #0
 1923 002e 00D0     		beq	.L139
 1924              	.L140:
 1925              		.loc 1 2406 0 is_stmt 0 discriminator 1
 1926 0030 FEE7     		b	.L140
 1927              	.L139:
 1928 0032 3D4B     		ldr	r3, .L153+8
 1929 0034 1B68     		ldr	r3, [r3]
 1930 0036 FB60     		str	r3, [r7, #12]
 1931 0038 3C4B     		ldr	r3, .L153+12
 1932 003a 1B68     		ldr	r3, [r3]
 1933 003c 3A4A     		ldr	r2, .L153+8
 1934 003e 1360     		str	r3, [r2]
 1935 0040 3A4A     		ldr	r2, .L153+12
 1936 0042 FB68     		ldr	r3, [r7, #12]
 1937 0044 1360     		str	r3, [r2]
 1938 0046 3A4B     		ldr	r3, .L153+16
 1939 0048 1B68     		ldr	r3, [r3]
 1940 004a 0133     		adds	r3, r3, #1
 1941 004c 384A     		ldr	r2, .L153+16
 1942 004e 1360     		str	r3, [r2]
 1943 0050 FFF7FEFF 		bl	prvResetNextTaskUnblockTime
 1944              	.L138:
 1945              	.LBE30:
2407:../src/RTOS/tasks.c **** 		}
2408:../src/RTOS/tasks.c **** 		else
2409:../src/RTOS/tasks.c **** 		{
2410:../src/RTOS/tasks.c **** 			mtCOVERAGE_TEST_MARKER();
2411:../src/RTOS/tasks.c **** 		}
2412:../src/RTOS/tasks.c **** 
2413:../src/RTOS/tasks.c **** 		/* See if this tick has made a timeout expire.  Tasks are stored in
2414:../src/RTOS/tasks.c **** 		the	queue in the order of their wake time - meaning once one task
2415:../src/RTOS/tasks.c **** 		has been found whose block time has not expired there is no need to
2416:../src/RTOS/tasks.c **** 		look any further down the list. */
2417:../src/RTOS/tasks.c **** 		if( xConstTickCount >= xNextTaskUnblockTime )
 1946              		.loc 1 2417 0 is_stmt 1
 1947 0054 374B     		ldr	r3, .L153+20
 1948 0056 1B68     		ldr	r3, [r3]
 1949 0058 3A69     		ldr	r2, [r7, #16]
 1950 005a 9A42     		cmp	r2, r3
 1951 005c 4ED3     		bcc	.L141
 1952              	.L149:
2418:../src/RTOS/tasks.c **** 		{
2419:../src/RTOS/tasks.c **** 			for( ;; )
2420:../src/RTOS/tasks.c **** 			{
2421:../src/RTOS/tasks.c **** 				if( listLIST_IS_EMPTY( pxDelayedTaskList ) != pdFALSE )
 1953              		.loc 1 2421 0
 1954 005e 324B     		ldr	r3, .L153+8
 1955 0060 1B68     		ldr	r3, [r3]
 1956 0062 1B68     		ldr	r3, [r3]
 1957 0064 002B     		cmp	r3, #0
 1958 0066 01D1     		bne	.L142
 1959              		.loc 1 2421 0 is_stmt 0 discriminator 1
 1960 0068 0123     		movs	r3, #1
 1961 006a 00E0     		b	.L143
 1962              	.L142:
 1963              		.loc 1 2421 0 discriminator 2
 1964 006c 0023     		movs	r3, #0
 1965              	.L143:
 1966              		.loc 1 2421 0 discriminator 4
 1967 006e 002B     		cmp	r3, #0
 1968 0070 04D0     		beq	.L144
2422:../src/RTOS/tasks.c **** 				{
2423:../src/RTOS/tasks.c **** 					/* The delayed list is empty.  Set xNextTaskUnblockTime
2424:../src/RTOS/tasks.c **** 					to the maximum possible value so it is extremely
2425:../src/RTOS/tasks.c **** 					unlikely that the
2426:../src/RTOS/tasks.c **** 					if( xTickCount >= xNextTaskUnblockTime ) test will pass
2427:../src/RTOS/tasks.c **** 					next time through. */
2428:../src/RTOS/tasks.c **** 					xNextTaskUnblockTime = portMAX_DELAY; /*lint !e961 MISRA exception as the casts are only redun
 1969              		.loc 1 2428 0 is_stmt 1
 1970 0072 304B     		ldr	r3, .L153+20
 1971 0074 4FF0FF32 		mov	r2, #-1
 1972 0078 1A60     		str	r2, [r3]
2429:../src/RTOS/tasks.c **** 					break;
 1973              		.loc 1 2429 0
 1974 007a 3FE0     		b	.L141
 1975              	.L144:
2430:../src/RTOS/tasks.c **** 				}
2431:../src/RTOS/tasks.c **** 				else
